	.text
	.file	"mpiwrapper_f.c"
	.globl	mpi_allgather_          # -- Begin function mpi_allgather_
	.p2align	4, 0x90
	.type	mpi_allgather_,@function
mpi_allgather_:                         # @mpi_allgather_
	.cfi_startproc
# %bb.0:                                # %entry
	pushq	%rbp
	.cfi_def_cfa_offset 16
	.cfi_offset %rbp, -16
	movq	%rsp, %rbp
	.cfi_def_cfa_register %rbp
	pushq	%r15
	pushq	%r14
	pushq	%r13
	pushq	%r12
	pushq	%rbx
	subq	$120, %rsp
	.cfi_offset %rbx, -56
	.cfi_offset %r12, -48
	.cfi_offset %r13, -40
	.cfi_offset %r14, -32
	.cfi_offset %r15, -24
	movq	%r9, -48(%rbp)          # 8-byte Spill
	movq	%r8, %r12
	movq	%rcx, %r13
	movq	%rdx, %rbx
	movq	%rsi, %r14
	movq	%rdi, %r15
	movq	24(%rbp), %rax
	movq	16(%rbp), %rax
	movl	$126, __profile__funcID
	callq	__profile__record_time_begin
	movq	%rax, -56(%rbp)         # 8-byte Spill
	movq	%r15, -104(%rbp)
	movq	%r14, -96(%rbp)
	movq	%rbx, -88(%rbp)
	movq	%r13, -80(%rbp)
	movq	%r12, -72(%rbp)
	movq	-48(%rbp), %rax         # 8-byte Reload
	movq	%rax, -64(%rbp)
	movq	-104(%rbp), %rdi
	movq	-96(%rbp), %rax
	movl	(%rax), %esi
	movq	-88(%rbp), %rax
	movl	(%rax), %edx
	movq	-80(%rbp), %rcx
	movq	-72(%rbp), %rax
	movl	(%rax), %r8d
	movq	-64(%rbp), %rax
	movl	(%rax), %r9d
	movq	16(%rbp), %rax
	movl	(%rax), %eax
	movl	%eax, (%rsp)
	callq	MPI_Allgather
	movq	24(%rbp), %rcx
	movl	%eax, (%rcx)
	movabsq	$.L__unnamed_1, %rdi
	movq	-56(%rbp), %rsi         # 8-byte Reload
	callq	__profile__record_time_end
	addq	$120, %rsp
	popq	%rbx
	popq	%r12
	popq	%r13
	popq	%r14
	popq	%r15
	popq	%rbp
	.cfi_def_cfa %rsp, 8
	retq
.Lfunc_end0:
	.size	mpi_allgather_, .Lfunc_end0-mpi_allgather_
	.cfi_endproc
                                        # -- End function
	.globl	mpi_allgather__         # -- Begin function mpi_allgather__
	.p2align	4, 0x90
	.type	mpi_allgather__,@function
mpi_allgather__:                        # @mpi_allgather__
	.cfi_startproc
# %bb.0:                                # %entry
	pushq	%rbp
	.cfi_def_cfa_offset 16
	.cfi_offset %rbp, -16
	movq	%rsp, %rbp
	.cfi_def_cfa_register %rbp
	pushq	%r15
	pushq	%r14
	pushq	%r13
	pushq	%r12
	pushq	%rbx
	subq	$120, %rsp
	.cfi_offset %rbx, -56
	.cfi_offset %r12, -48
	.cfi_offset %r13, -40
	.cfi_offset %r14, -32
	.cfi_offset %r15, -24
	movq	%r9, -48(%rbp)          # 8-byte Spill
	movq	%r8, %r15
	movq	%rcx, %r12
	movq	%rdx, %r13
	movq	%rsi, %rbx
	movq	%rdi, %r14
	movq	24(%rbp), %rax
	movq	16(%rbp), %rax
	movl	$127, __profile__funcID
	callq	__profile__record_time_begin
	movq	%rax, -56(%rbp)         # 8-byte Spill
	movq	%r14, -104(%rbp)
	movq	%rbx, -96(%rbp)
	movq	%r13, -88(%rbp)
	movq	%r12, -80(%rbp)
	movq	%r15, -72(%rbp)
	movq	-48(%rbp), %rax         # 8-byte Reload
	movq	%rax, -64(%rbp)
	movq	-104(%rbp), %rdi
	movq	-96(%rbp), %rsi
	movq	-88(%rbp), %rdx
	movq	-80(%rbp), %rcx
	movq	-72(%rbp), %r8
	movq	-64(%rbp), %r9
	movq	16(%rbp), %rax
	movq	24(%rbp), %rbx
	movq	%rax, (%rsp)
	movq	%rbx, 8(%rsp)
	callq	mpi_allgather_
	movabsq	$.L__unnamed_2, %rdi
	movq	-56(%rbp), %rsi         # 8-byte Reload
	callq	__profile__record_time_end
	addq	$120, %rsp
	popq	%rbx
	popq	%r12
	popq	%r13
	popq	%r14
	popq	%r15
	popq	%rbp
	.cfi_def_cfa %rsp, 8
	retq
.Lfunc_end1:
	.size	mpi_allgather__, .Lfunc_end1-mpi_allgather__
	.cfi_endproc
                                        # -- End function
	.globl	MPI_ALLGATHER           # -- Begin function MPI_ALLGATHER
	.p2align	4, 0x90
	.type	MPI_ALLGATHER,@function
MPI_ALLGATHER:                          # @MPI_ALLGATHER
	.cfi_startproc
# %bb.0:                                # %entry
	pushq	%rbp
	.cfi_def_cfa_offset 16
	.cfi_offset %rbp, -16
	movq	%rsp, %rbp
	.cfi_def_cfa_register %rbp
	pushq	%r15
	pushq	%r14
	pushq	%r13
	pushq	%r12
	pushq	%rbx
	subq	$120, %rsp
	.cfi_offset %rbx, -56
	.cfi_offset %r12, -48
	.cfi_offset %r13, -40
	.cfi_offset %r14, -32
	.cfi_offset %r15, -24
	movq	%r9, -48(%rbp)          # 8-byte Spill
	movq	%r8, %r15
	movq	%rcx, %r12
	movq	%rdx, %r13
	movq	%rsi, %rbx
	movq	%rdi, %r14
	movq	24(%rbp), %rax
	movq	16(%rbp), %rax
	movl	$128, __profile__funcID
	callq	__profile__record_time_begin
	movq	%rax, -56(%rbp)         # 8-byte Spill
	movq	%r14, -104(%rbp)
	movq	%rbx, -96(%rbp)
	movq	%r13, -88(%rbp)
	movq	%r12, -80(%rbp)
	movq	%r15, -72(%rbp)
	movq	-48(%rbp), %rax         # 8-byte Reload
	movq	%rax, -64(%rbp)
	movq	-104(%rbp), %rdi
	movq	-96(%rbp), %rsi
	movq	-88(%rbp), %rdx
	movq	-80(%rbp), %rcx
	movq	-72(%rbp), %r8
	movq	-64(%rbp), %r9
	movq	16(%rbp), %rax
	movq	24(%rbp), %rbx
	movq	%rax, (%rsp)
	movq	%rbx, 8(%rsp)
	callq	mpi_allgather_
	movabsq	$.L__unnamed_3, %rdi
	movq	-56(%rbp), %rsi         # 8-byte Reload
	callq	__profile__record_time_end
	addq	$120, %rsp
	popq	%rbx
	popq	%r12
	popq	%r13
	popq	%r14
	popq	%r15
	popq	%rbp
	.cfi_def_cfa %rsp, 8
	retq
.Lfunc_end2:
	.size	MPI_ALLGATHER, .Lfunc_end2-MPI_ALLGATHER
	.cfi_endproc
                                        # -- End function
	.globl	MPI_ALLGATHER_          # -- Begin function MPI_ALLGATHER_
	.p2align	4, 0x90
	.type	MPI_ALLGATHER_,@function
MPI_ALLGATHER_:                         # @MPI_ALLGATHER_
	.cfi_startproc
# %bb.0:                                # %entry
	pushq	%rbp
	.cfi_def_cfa_offset 16
	.cfi_offset %rbp, -16
	movq	%rsp, %rbp
	.cfi_def_cfa_register %rbp
	pushq	%r15
	pushq	%r14
	pushq	%r13
	pushq	%r12
	pushq	%rbx
	subq	$120, %rsp
	.cfi_offset %rbx, -56
	.cfi_offset %r12, -48
	.cfi_offset %r13, -40
	.cfi_offset %r14, -32
	.cfi_offset %r15, -24
	movq	%r9, -48(%rbp)          # 8-byte Spill
	movq	%r8, %r15
	movq	%rcx, %r12
	movq	%rdx, %r13
	movq	%rsi, %rbx
	movq	%rdi, %r14
	movq	24(%rbp), %rax
	movq	16(%rbp), %rax
	movl	$129, __profile__funcID
	callq	__profile__record_time_begin
	movq	%rax, -56(%rbp)         # 8-byte Spill
	movq	%r14, -104(%rbp)
	movq	%rbx, -96(%rbp)
	movq	%r13, -88(%rbp)
	movq	%r12, -80(%rbp)
	movq	%r15, -72(%rbp)
	movq	-48(%rbp), %rax         # 8-byte Reload
	movq	%rax, -64(%rbp)
	movq	-104(%rbp), %rdi
	movq	-96(%rbp), %rsi
	movq	-88(%rbp), %rdx
	movq	-80(%rbp), %rcx
	movq	-72(%rbp), %r8
	movq	-64(%rbp), %r9
	movq	16(%rbp), %rax
	movq	24(%rbp), %rbx
	movq	%rax, (%rsp)
	movq	%rbx, 8(%rsp)
	callq	mpi_allgather_
	movabsq	$.L__unnamed_4, %rdi
	movq	-56(%rbp), %rsi         # 8-byte Reload
	callq	__profile__record_time_end
	addq	$120, %rsp
	popq	%rbx
	popq	%r12
	popq	%r13
	popq	%r14
	popq	%r15
	popq	%rbp
	.cfi_def_cfa %rsp, 8
	retq
.Lfunc_end3:
	.size	MPI_ALLGATHER_, .Lfunc_end3-MPI_ALLGATHER_
	.cfi_endproc
                                        # -- End function
	.globl	mpi_allgather           # -- Begin function mpi_allgather
	.p2align	4, 0x90
	.type	mpi_allgather,@function
mpi_allgather:                          # @mpi_allgather
	.cfi_startproc
# %bb.0:                                # %entry
	pushq	%rbp
	.cfi_def_cfa_offset 16
	.cfi_offset %rbp, -16
	movq	%rsp, %rbp
	.cfi_def_cfa_register %rbp
	pushq	%r15
	pushq	%r14
	pushq	%r13
	pushq	%r12
	pushq	%rbx
	subq	$120, %rsp
	.cfi_offset %rbx, -56
	.cfi_offset %r12, -48
	.cfi_offset %r13, -40
	.cfi_offset %r14, -32
	.cfi_offset %r15, -24
	movq	%r9, -48(%rbp)          # 8-byte Spill
	movq	%r8, %r15
	movq	%rcx, %r12
	movq	%rdx, %r13
	movq	%rsi, %rbx
	movq	%rdi, %r14
	movq	24(%rbp), %rax
	movq	16(%rbp), %rax
	movl	$130, __profile__funcID
	callq	__profile__record_time_begin
	movq	%rax, -56(%rbp)         # 8-byte Spill
	movq	%r14, -104(%rbp)
	movq	%rbx, -96(%rbp)
	movq	%r13, -88(%rbp)
	movq	%r12, -80(%rbp)
	movq	%r15, -72(%rbp)
	movq	-48(%rbp), %rax         # 8-byte Reload
	movq	%rax, -64(%rbp)
	movq	-104(%rbp), %rdi
	movq	-96(%rbp), %rsi
	movq	-88(%rbp), %rdx
	movq	-80(%rbp), %rcx
	movq	-72(%rbp), %r8
	movq	-64(%rbp), %r9
	movq	16(%rbp), %rax
	movq	24(%rbp), %rbx
	movq	%rax, (%rsp)
	movq	%rbx, 8(%rsp)
	callq	mpi_allgather_
	movabsq	$.L__unnamed_5, %rdi
	movq	-56(%rbp), %rsi         # 8-byte Reload
	callq	__profile__record_time_end
	addq	$120, %rsp
	popq	%rbx
	popq	%r12
	popq	%r13
	popq	%r14
	popq	%r15
	popq	%rbp
	.cfi_def_cfa %rsp, 8
	retq
.Lfunc_end4:
	.size	mpi_allgather, .Lfunc_end4-mpi_allgather
	.cfi_endproc
                                        # -- End function
	.globl	mpi_allgatherv_         # -- Begin function mpi_allgatherv_
	.p2align	4, 0x90
	.type	mpi_allgatherv_,@function
mpi_allgatherv_:                        # @mpi_allgatherv_
	.cfi_startproc
# %bb.0:                                # %entry
	pushq	%rbp
	.cfi_def_cfa_offset 16
	.cfi_offset %rbp, -16
	movq	%rsp, %rbp
	.cfi_def_cfa_register %rbp
	pushq	%r15
	pushq	%r14
	pushq	%r13
	pushq	%r12
	pushq	%rbx
	subq	$120, %rsp
	.cfi_offset %rbx, -56
	.cfi_offset %r12, -48
	.cfi_offset %r13, -40
	.cfi_offset %r14, -32
	.cfi_offset %r15, -24
	movq	%r9, -48(%rbp)          # 8-byte Spill
	movq	%r8, %r12
	movq	%rcx, %r13
	movq	%rdx, %rbx
	movq	%rsi, %r14
	movq	%rdi, %r15
	movq	32(%rbp), %rax
	movq	24(%rbp), %rax
	movq	16(%rbp), %rax
	movl	$131, __profile__funcID
	callq	__profile__record_time_begin
	movq	%rax, -56(%rbp)         # 8-byte Spill
	movq	%r15, -104(%rbp)
	movq	%r14, -96(%rbp)
	movq	%rbx, -88(%rbp)
	movq	%r13, -80(%rbp)
	movq	%r12, -72(%rbp)
	movq	-48(%rbp), %rax         # 8-byte Reload
	movq	%rax, -64(%rbp)
	movq	-104(%rbp), %rdi
	movq	-96(%rbp), %rax
	movl	(%rax), %esi
	movq	-88(%rbp), %rax
	movl	(%rax), %edx
	movq	-80(%rbp), %rcx
	movq	-72(%rbp), %r8
	movq	-64(%rbp), %r9
	movq	16(%rbp), %rax
	movl	(%rax), %eax
	movq	24(%rbp), %rbx
	movl	(%rbx), %ebx
	movl	%eax, (%rsp)
	movl	%ebx, 8(%rsp)
	callq	MPI_Allgatherv
	movq	32(%rbp), %rcx
	movl	%eax, (%rcx)
	movabsq	$.L__unnamed_6, %rdi
	movq	-56(%rbp), %rsi         # 8-byte Reload
	callq	__profile__record_time_end
	addq	$120, %rsp
	popq	%rbx
	popq	%r12
	popq	%r13
	popq	%r14
	popq	%r15
	popq	%rbp
	.cfi_def_cfa %rsp, 8
	retq
.Lfunc_end5:
	.size	mpi_allgatherv_, .Lfunc_end5-mpi_allgatherv_
	.cfi_endproc
                                        # -- End function
	.globl	mpi_allgatherv__        # -- Begin function mpi_allgatherv__
	.p2align	4, 0x90
	.type	mpi_allgatherv__,@function
mpi_allgatherv__:                       # @mpi_allgatherv__
	.cfi_startproc
# %bb.0:                                # %entry
	pushq	%rbp
	.cfi_def_cfa_offset 16
	.cfi_offset %rbp, -16
	movq	%rsp, %rbp
	.cfi_def_cfa_register %rbp
	pushq	%r15
	pushq	%r14
	pushq	%r13
	pushq	%r12
	pushq	%rbx
	subq	$136, %rsp
	.cfi_offset %rbx, -56
	.cfi_offset %r12, -48
	.cfi_offset %r13, -40
	.cfi_offset %r14, -32
	.cfi_offset %r15, -24
	movq	%r9, -48(%rbp)          # 8-byte Spill
	movq	%r8, %r15
	movq	%rcx, %r12
	movq	%rdx, %r13
	movq	%rsi, %rbx
	movq	%rdi, %r14
	movq	32(%rbp), %rax
	movq	24(%rbp), %rax
	movq	16(%rbp), %rax
	movl	$132, __profile__funcID
	callq	__profile__record_time_begin
	movq	%rax, -56(%rbp)         # 8-byte Spill
	movq	%r14, -104(%rbp)
	movq	%rbx, -96(%rbp)
	movq	%r13, -88(%rbp)
	movq	%r12, -80(%rbp)
	movq	%r15, -72(%rbp)
	movq	-48(%rbp), %rax         # 8-byte Reload
	movq	%rax, -64(%rbp)
	movq	-104(%rbp), %rdi
	movq	-96(%rbp), %rsi
	movq	-88(%rbp), %rdx
	movq	-80(%rbp), %rcx
	movq	-72(%rbp), %r8
	movq	-64(%rbp), %r9
	movq	16(%rbp), %rax
	movq	24(%rbp), %rbx
	movq	32(%rbp), %r10
	movq	%rax, (%rsp)
	movq	%rbx, 8(%rsp)
	movq	%r10, 16(%rsp)
	callq	mpi_allgatherv_
	movabsq	$.L__unnamed_7, %rdi
	movq	-56(%rbp), %rsi         # 8-byte Reload
	callq	__profile__record_time_end
	addq	$136, %rsp
	popq	%rbx
	popq	%r12
	popq	%r13
	popq	%r14
	popq	%r15
	popq	%rbp
	.cfi_def_cfa %rsp, 8
	retq
.Lfunc_end6:
	.size	mpi_allgatherv__, .Lfunc_end6-mpi_allgatherv__
	.cfi_endproc
                                        # -- End function
	.globl	MPI_ALLGATHERV          # -- Begin function MPI_ALLGATHERV
	.p2align	4, 0x90
	.type	MPI_ALLGATHERV,@function
MPI_ALLGATHERV:                         # @MPI_ALLGATHERV
	.cfi_startproc
# %bb.0:                                # %entry
	pushq	%rbp
	.cfi_def_cfa_offset 16
	.cfi_offset %rbp, -16
	movq	%rsp, %rbp
	.cfi_def_cfa_register %rbp
	pushq	%r15
	pushq	%r14
	pushq	%r13
	pushq	%r12
	pushq	%rbx
	subq	$136, %rsp
	.cfi_offset %rbx, -56
	.cfi_offset %r12, -48
	.cfi_offset %r13, -40
	.cfi_offset %r14, -32
	.cfi_offset %r15, -24
	movq	%r9, -48(%rbp)          # 8-byte Spill
	movq	%r8, %r15
	movq	%rcx, %r12
	movq	%rdx, %r13
	movq	%rsi, %rbx
	movq	%rdi, %r14
	movq	32(%rbp), %rax
	movq	24(%rbp), %rax
	movq	16(%rbp), %rax
	movl	$133, __profile__funcID
	callq	__profile__record_time_begin
	movq	%rax, -56(%rbp)         # 8-byte Spill
	movq	%r14, -104(%rbp)
	movq	%rbx, -96(%rbp)
	movq	%r13, -88(%rbp)
	movq	%r12, -80(%rbp)
	movq	%r15, -72(%rbp)
	movq	-48(%rbp), %rax         # 8-byte Reload
	movq	%rax, -64(%rbp)
	movq	-104(%rbp), %rdi
	movq	-96(%rbp), %rsi
	movq	-88(%rbp), %rdx
	movq	-80(%rbp), %rcx
	movq	-72(%rbp), %r8
	movq	-64(%rbp), %r9
	movq	16(%rbp), %rax
	movq	24(%rbp), %rbx
	movq	32(%rbp), %r10
	movq	%rax, (%rsp)
	movq	%rbx, 8(%rsp)
	movq	%r10, 16(%rsp)
	callq	mpi_allgatherv_
	movabsq	$.L__unnamed_8, %rdi
	movq	-56(%rbp), %rsi         # 8-byte Reload
	callq	__profile__record_time_end
	addq	$136, %rsp
	popq	%rbx
	popq	%r12
	popq	%r13
	popq	%r14
	popq	%r15
	popq	%rbp
	.cfi_def_cfa %rsp, 8
	retq
.Lfunc_end7:
	.size	MPI_ALLGATHERV, .Lfunc_end7-MPI_ALLGATHERV
	.cfi_endproc
                                        # -- End function
	.globl	MPI_ALLGATHERV_         # -- Begin function MPI_ALLGATHERV_
	.p2align	4, 0x90
	.type	MPI_ALLGATHERV_,@function
MPI_ALLGATHERV_:                        # @MPI_ALLGATHERV_
	.cfi_startproc
# %bb.0:                                # %entry
	pushq	%rbp
	.cfi_def_cfa_offset 16
	.cfi_offset %rbp, -16
	movq	%rsp, %rbp
	.cfi_def_cfa_register %rbp
	pushq	%r15
	pushq	%r14
	pushq	%r13
	pushq	%r12
	pushq	%rbx
	subq	$136, %rsp
	.cfi_offset %rbx, -56
	.cfi_offset %r12, -48
	.cfi_offset %r13, -40
	.cfi_offset %r14, -32
	.cfi_offset %r15, -24
	movq	%r9, -48(%rbp)          # 8-byte Spill
	movq	%r8, %r15
	movq	%rcx, %r12
	movq	%rdx, %r13
	movq	%rsi, %rbx
	movq	%rdi, %r14
	movq	32(%rbp), %rax
	movq	24(%rbp), %rax
	movq	16(%rbp), %rax
	movl	$134, __profile__funcID
	callq	__profile__record_time_begin
	movq	%rax, -56(%rbp)         # 8-byte Spill
	movq	%r14, -104(%rbp)
	movq	%rbx, -96(%rbp)
	movq	%r13, -88(%rbp)
	movq	%r12, -80(%rbp)
	movq	%r15, -72(%rbp)
	movq	-48(%rbp), %rax         # 8-byte Reload
	movq	%rax, -64(%rbp)
	movq	-104(%rbp), %rdi
	movq	-96(%rbp), %rsi
	movq	-88(%rbp), %rdx
	movq	-80(%rbp), %rcx
	movq	-72(%rbp), %r8
	movq	-64(%rbp), %r9
	movq	16(%rbp), %rax
	movq	24(%rbp), %rbx
	movq	32(%rbp), %r10
	movq	%rax, (%rsp)
	movq	%rbx, 8(%rsp)
	movq	%r10, 16(%rsp)
	callq	mpi_allgatherv_
	movabsq	$.L__unnamed_9, %rdi
	movq	-56(%rbp), %rsi         # 8-byte Reload
	callq	__profile__record_time_end
	addq	$136, %rsp
	popq	%rbx
	popq	%r12
	popq	%r13
	popq	%r14
	popq	%r15
	popq	%rbp
	.cfi_def_cfa %rsp, 8
	retq
.Lfunc_end8:
	.size	MPI_ALLGATHERV_, .Lfunc_end8-MPI_ALLGATHERV_
	.cfi_endproc
                                        # -- End function
	.globl	mpi_allgatherv          # -- Begin function mpi_allgatherv
	.p2align	4, 0x90
	.type	mpi_allgatherv,@function
mpi_allgatherv:                         # @mpi_allgatherv
	.cfi_startproc
# %bb.0:                                # %entry
	pushq	%rbp
	.cfi_def_cfa_offset 16
	.cfi_offset %rbp, -16
	movq	%rsp, %rbp
	.cfi_def_cfa_register %rbp
	pushq	%r15
	pushq	%r14
	pushq	%r13
	pushq	%r12
	pushq	%rbx
	subq	$136, %rsp
	.cfi_offset %rbx, -56
	.cfi_offset %r12, -48
	.cfi_offset %r13, -40
	.cfi_offset %r14, -32
	.cfi_offset %r15, -24
	movq	%r9, -48(%rbp)          # 8-byte Spill
	movq	%r8, %r15
	movq	%rcx, %r12
	movq	%rdx, %r13
	movq	%rsi, %rbx
	movq	%rdi, %r14
	movq	32(%rbp), %rax
	movq	24(%rbp), %rax
	movq	16(%rbp), %rax
	movl	$135, __profile__funcID
	callq	__profile__record_time_begin
	movq	%rax, -56(%rbp)         # 8-byte Spill
	movq	%r14, -104(%rbp)
	movq	%rbx, -96(%rbp)
	movq	%r13, -88(%rbp)
	movq	%r12, -80(%rbp)
	movq	%r15, -72(%rbp)
	movq	-48(%rbp), %rax         # 8-byte Reload
	movq	%rax, -64(%rbp)
	movq	-104(%rbp), %rdi
	movq	-96(%rbp), %rsi
	movq	-88(%rbp), %rdx
	movq	-80(%rbp), %rcx
	movq	-72(%rbp), %r8
	movq	-64(%rbp), %r9
	movq	16(%rbp), %rax
	movq	24(%rbp), %rbx
	movq	32(%rbp), %r10
	movq	%rax, (%rsp)
	movq	%rbx, 8(%rsp)
	movq	%r10, 16(%rsp)
	callq	mpi_allgatherv_
	movabsq	$.L__unnamed_10, %rdi
	movq	-56(%rbp), %rsi         # 8-byte Reload
	callq	__profile__record_time_end
	addq	$136, %rsp
	popq	%rbx
	popq	%r12
	popq	%r13
	popq	%r14
	popq	%r15
	popq	%rbp
	.cfi_def_cfa %rsp, 8
	retq
.Lfunc_end9:
	.size	mpi_allgatherv, .Lfunc_end9-mpi_allgatherv
	.cfi_endproc
                                        # -- End function
	.globl	mpi_allreduce_          # -- Begin function mpi_allreduce_
	.p2align	4, 0x90
	.type	mpi_allreduce_,@function
mpi_allreduce_:                         # @mpi_allreduce_
	.cfi_startproc
# %bb.0:                                # %entry
	pushq	%rbp
	.cfi_def_cfa_offset 16
	.cfi_offset %rbp, -16
	movq	%rsp, %rbp
	.cfi_def_cfa_register %rbp
	pushq	%r15
	pushq	%r14
	pushq	%r13
	pushq	%r12
	pushq	%rbx
	subq	$104, %rsp
	.cfi_offset %rbx, -56
	.cfi_offset %r12, -48
	.cfi_offset %r13, -40
	.cfi_offset %r14, -32
	.cfi_offset %r15, -24
	movq	%r9, -48(%rbp)          # 8-byte Spill
	movq	%r8, %r15
	movq	%rcx, %r12
	movq	%rdx, %r13
	movq	%rsi, %rbx
	movq	%rdi, %r14
	movq	16(%rbp), %rax
	movl	$136, __profile__funcID
	callq	__profile__record_time_begin
	movq	%rax, -56(%rbp)         # 8-byte Spill
	movq	%r14, -104(%rbp)
	movq	%rbx, -96(%rbp)
	movq	%r13, -88(%rbp)
	movq	%r12, -80(%rbp)
	movq	%r15, -72(%rbp)
	movq	-48(%rbp), %rax         # 8-byte Reload
	movq	%rax, -64(%rbp)
	movq	-104(%rbp), %rdi
	movq	-96(%rbp), %rsi
	movq	-88(%rbp), %rax
	movl	(%rax), %edx
	movq	-80(%rbp), %rax
	movl	(%rax), %ecx
	movq	-72(%rbp), %rax
	movl	(%rax), %r8d
	movq	-64(%rbp), %rax
	movl	(%rax), %r9d
	callq	MPI_Allreduce
	movq	16(%rbp), %rcx
	movl	%eax, (%rcx)
	movabsq	$.L__unnamed_11, %rdi
	movq	-56(%rbp), %rsi         # 8-byte Reload
	callq	__profile__record_time_end
	addq	$104, %rsp
	popq	%rbx
	popq	%r12
	popq	%r13
	popq	%r14
	popq	%r15
	popq	%rbp
	.cfi_def_cfa %rsp, 8
	retq
.Lfunc_end10:
	.size	mpi_allreduce_, .Lfunc_end10-mpi_allreduce_
	.cfi_endproc
                                        # -- End function
	.globl	mpi_allreduce__         # -- Begin function mpi_allreduce__
	.p2align	4, 0x90
	.type	mpi_allreduce__,@function
mpi_allreduce__:                        # @mpi_allreduce__
	.cfi_startproc
# %bb.0:                                # %entry
	pushq	%rbp
	.cfi_def_cfa_offset 16
	.cfi_offset %rbp, -16
	movq	%rsp, %rbp
	.cfi_def_cfa_register %rbp
	pushq	%r15
	pushq	%r14
	pushq	%r13
	pushq	%r12
	pushq	%rbx
	subq	$120, %rsp
	.cfi_offset %rbx, -56
	.cfi_offset %r12, -48
	.cfi_offset %r13, -40
	.cfi_offset %r14, -32
	.cfi_offset %r15, -24
	movq	%r9, -48(%rbp)          # 8-byte Spill
	movq	%r8, %r15
	movq	%rcx, %r12
	movq	%rdx, %r13
	movq	%rsi, %rbx
	movq	%rdi, %r14
	movq	16(%rbp), %rax
	movl	$137, __profile__funcID
	callq	__profile__record_time_begin
	movq	%rax, -56(%rbp)         # 8-byte Spill
	movq	%r14, -104(%rbp)
	movq	%rbx, -96(%rbp)
	movq	%r13, -88(%rbp)
	movq	%r12, -80(%rbp)
	movq	%r15, -72(%rbp)
	movq	-48(%rbp), %rax         # 8-byte Reload
	movq	%rax, -64(%rbp)
	movq	-104(%rbp), %rdi
	movq	-96(%rbp), %rsi
	movq	-88(%rbp), %rdx
	movq	-80(%rbp), %rcx
	movq	-72(%rbp), %r8
	movq	-64(%rbp), %r9
	movq	16(%rbp), %rax
	movq	%rax, (%rsp)
	callq	mpi_allreduce_
	movabsq	$.L__unnamed_12, %rdi
	movq	-56(%rbp), %rsi         # 8-byte Reload
	callq	__profile__record_time_end
	addq	$120, %rsp
	popq	%rbx
	popq	%r12
	popq	%r13
	popq	%r14
	popq	%r15
	popq	%rbp
	.cfi_def_cfa %rsp, 8
	retq
.Lfunc_end11:
	.size	mpi_allreduce__, .Lfunc_end11-mpi_allreduce__
	.cfi_endproc
                                        # -- End function
	.globl	MPI_ALLREDUCE           # -- Begin function MPI_ALLREDUCE
	.p2align	4, 0x90
	.type	MPI_ALLREDUCE,@function
MPI_ALLREDUCE:                          # @MPI_ALLREDUCE
	.cfi_startproc
# %bb.0:                                # %entry
	pushq	%rbp
	.cfi_def_cfa_offset 16
	.cfi_offset %rbp, -16
	movq	%rsp, %rbp
	.cfi_def_cfa_register %rbp
	pushq	%r15
	pushq	%r14
	pushq	%r13
	pushq	%r12
	pushq	%rbx
	subq	$120, %rsp
	.cfi_offset %rbx, -56
	.cfi_offset %r12, -48
	.cfi_offset %r13, -40
	.cfi_offset %r14, -32
	.cfi_offset %r15, -24
	movq	%r9, -48(%rbp)          # 8-byte Spill
	movq	%r8, %r15
	movq	%rcx, %r12
	movq	%rdx, %r13
	movq	%rsi, %rbx
	movq	%rdi, %r14
	movq	16(%rbp), %rax
	movl	$138, __profile__funcID
	callq	__profile__record_time_begin
	movq	%rax, -56(%rbp)         # 8-byte Spill
	movq	%r14, -104(%rbp)
	movq	%rbx, -96(%rbp)
	movq	%r13, -88(%rbp)
	movq	%r12, -80(%rbp)
	movq	%r15, -72(%rbp)
	movq	-48(%rbp), %rax         # 8-byte Reload
	movq	%rax, -64(%rbp)
	movq	-104(%rbp), %rdi
	movq	-96(%rbp), %rsi
	movq	-88(%rbp), %rdx
	movq	-80(%rbp), %rcx
	movq	-72(%rbp), %r8
	movq	-64(%rbp), %r9
	movq	16(%rbp), %rax
	movq	%rax, (%rsp)
	callq	mpi_allreduce_
	movabsq	$.L__unnamed_13, %rdi
	movq	-56(%rbp), %rsi         # 8-byte Reload
	callq	__profile__record_time_end
	addq	$120, %rsp
	popq	%rbx
	popq	%r12
	popq	%r13
	popq	%r14
	popq	%r15
	popq	%rbp
	.cfi_def_cfa %rsp, 8
	retq
.Lfunc_end12:
	.size	MPI_ALLREDUCE, .Lfunc_end12-MPI_ALLREDUCE
	.cfi_endproc
                                        # -- End function
	.globl	MPI_ALLREDUCE_          # -- Begin function MPI_ALLREDUCE_
	.p2align	4, 0x90
	.type	MPI_ALLREDUCE_,@function
MPI_ALLREDUCE_:                         # @MPI_ALLREDUCE_
	.cfi_startproc
# %bb.0:                                # %entry
	pushq	%rbp
	.cfi_def_cfa_offset 16
	.cfi_offset %rbp, -16
	movq	%rsp, %rbp
	.cfi_def_cfa_register %rbp
	pushq	%r15
	pushq	%r14
	pushq	%r13
	pushq	%r12
	pushq	%rbx
	subq	$120, %rsp
	.cfi_offset %rbx, -56
	.cfi_offset %r12, -48
	.cfi_offset %r13, -40
	.cfi_offset %r14, -32
	.cfi_offset %r15, -24
	movq	%r9, -48(%rbp)          # 8-byte Spill
	movq	%r8, %r15
	movq	%rcx, %r12
	movq	%rdx, %r13
	movq	%rsi, %rbx
	movq	%rdi, %r14
	movq	16(%rbp), %rax
	movl	$139, __profile__funcID
	callq	__profile__record_time_begin
	movq	%rax, -56(%rbp)         # 8-byte Spill
	movq	%r14, -104(%rbp)
	movq	%rbx, -96(%rbp)
	movq	%r13, -88(%rbp)
	movq	%r12, -80(%rbp)
	movq	%r15, -72(%rbp)
	movq	-48(%rbp), %rax         # 8-byte Reload
	movq	%rax, -64(%rbp)
	movq	-104(%rbp), %rdi
	movq	-96(%rbp), %rsi
	movq	-88(%rbp), %rdx
	movq	-80(%rbp), %rcx
	movq	-72(%rbp), %r8
	movq	-64(%rbp), %r9
	movq	16(%rbp), %rax
	movq	%rax, (%rsp)
	callq	mpi_allreduce_
	movabsq	$.L__unnamed_14, %rdi
	movq	-56(%rbp), %rsi         # 8-byte Reload
	callq	__profile__record_time_end
	addq	$120, %rsp
	popq	%rbx
	popq	%r12
	popq	%r13
	popq	%r14
	popq	%r15
	popq	%rbp
	.cfi_def_cfa %rsp, 8
	retq
.Lfunc_end13:
	.size	MPI_ALLREDUCE_, .Lfunc_end13-MPI_ALLREDUCE_
	.cfi_endproc
                                        # -- End function
	.globl	mpi_allreduce           # -- Begin function mpi_allreduce
	.p2align	4, 0x90
	.type	mpi_allreduce,@function
mpi_allreduce:                          # @mpi_allreduce
	.cfi_startproc
# %bb.0:                                # %entry
	pushq	%rbp
	.cfi_def_cfa_offset 16
	.cfi_offset %rbp, -16
	movq	%rsp, %rbp
	.cfi_def_cfa_register %rbp
	pushq	%r15
	pushq	%r14
	pushq	%r13
	pushq	%r12
	pushq	%rbx
	subq	$120, %rsp
	.cfi_offset %rbx, -56
	.cfi_offset %r12, -48
	.cfi_offset %r13, -40
	.cfi_offset %r14, -32
	.cfi_offset %r15, -24
	movq	%r9, -48(%rbp)          # 8-byte Spill
	movq	%r8, %r15
	movq	%rcx, %r12
	movq	%rdx, %r13
	movq	%rsi, %rbx
	movq	%rdi, %r14
	movq	16(%rbp), %rax
	movl	$140, __profile__funcID
	callq	__profile__record_time_begin
	movq	%rax, -56(%rbp)         # 8-byte Spill
	movq	%r14, -104(%rbp)
	movq	%rbx, -96(%rbp)
	movq	%r13, -88(%rbp)
	movq	%r12, -80(%rbp)
	movq	%r15, -72(%rbp)
	movq	-48(%rbp), %rax         # 8-byte Reload
	movq	%rax, -64(%rbp)
	movq	-104(%rbp), %rdi
	movq	-96(%rbp), %rsi
	movq	-88(%rbp), %rdx
	movq	-80(%rbp), %rcx
	movq	-72(%rbp), %r8
	movq	-64(%rbp), %r9
	movq	16(%rbp), %rax
	movq	%rax, (%rsp)
	callq	mpi_allreduce_
	movabsq	$.L__unnamed_15, %rdi
	movq	-56(%rbp), %rsi         # 8-byte Reload
	callq	__profile__record_time_end
	addq	$120, %rsp
	popq	%rbx
	popq	%r12
	popq	%r13
	popq	%r14
	popq	%r15
	popq	%rbp
	.cfi_def_cfa %rsp, 8
	retq
.Lfunc_end14:
	.size	mpi_allreduce, .Lfunc_end14-mpi_allreduce
	.cfi_endproc
                                        # -- End function
	.globl	mpi_alltoall_           # -- Begin function mpi_alltoall_
	.p2align	4, 0x90
	.type	mpi_alltoall_,@function
mpi_alltoall_:                          # @mpi_alltoall_
	.cfi_startproc
# %bb.0:                                # %entry
	pushq	%rbp
	.cfi_def_cfa_offset 16
	.cfi_offset %rbp, -16
	movq	%rsp, %rbp
	.cfi_def_cfa_register %rbp
	pushq	%r15
	pushq	%r14
	pushq	%r13
	pushq	%r12
	pushq	%rbx
	subq	$120, %rsp
	.cfi_offset %rbx, -56
	.cfi_offset %r12, -48
	.cfi_offset %r13, -40
	.cfi_offset %r14, -32
	.cfi_offset %r15, -24
	movq	%r9, -48(%rbp)          # 8-byte Spill
	movq	%r8, %r12
	movq	%rcx, %r13
	movq	%rdx, %rbx
	movq	%rsi, %r14
	movq	%rdi, %r15
	movq	24(%rbp), %rax
	movq	16(%rbp), %rax
	movl	$141, __profile__funcID
	callq	__profile__record_time_begin
	movq	%rax, -56(%rbp)         # 8-byte Spill
	movq	%r15, -104(%rbp)
	movq	%r14, -96(%rbp)
	movq	%rbx, -88(%rbp)
	movq	%r13, -80(%rbp)
	movq	%r12, -72(%rbp)
	movq	-48(%rbp), %rax         # 8-byte Reload
	movq	%rax, -64(%rbp)
	movq	-104(%rbp), %rdi
	movq	-96(%rbp), %rax
	movl	(%rax), %esi
	movq	-88(%rbp), %rax
	movl	(%rax), %edx
	movq	-80(%rbp), %rcx
	movq	-72(%rbp), %rax
	movl	(%rax), %r8d
	movq	-64(%rbp), %rax
	movl	(%rax), %r9d
	movq	16(%rbp), %rax
	movl	(%rax), %eax
	movl	%eax, (%rsp)
	callq	MPI_Alltoall
	movq	24(%rbp), %rcx
	movl	%eax, (%rcx)
	movabsq	$.L__unnamed_16, %rdi
	movq	-56(%rbp), %rsi         # 8-byte Reload
	callq	__profile__record_time_end
	addq	$120, %rsp
	popq	%rbx
	popq	%r12
	popq	%r13
	popq	%r14
	popq	%r15
	popq	%rbp
	.cfi_def_cfa %rsp, 8
	retq
.Lfunc_end15:
	.size	mpi_alltoall_, .Lfunc_end15-mpi_alltoall_
	.cfi_endproc
                                        # -- End function
	.globl	mpi_alltoall__          # -- Begin function mpi_alltoall__
	.p2align	4, 0x90
	.type	mpi_alltoall__,@function
mpi_alltoall__:                         # @mpi_alltoall__
	.cfi_startproc
# %bb.0:                                # %entry
	pushq	%rbp
	.cfi_def_cfa_offset 16
	.cfi_offset %rbp, -16
	movq	%rsp, %rbp
	.cfi_def_cfa_register %rbp
	pushq	%r15
	pushq	%r14
	pushq	%r13
	pushq	%r12
	pushq	%rbx
	subq	$120, %rsp
	.cfi_offset %rbx, -56
	.cfi_offset %r12, -48
	.cfi_offset %r13, -40
	.cfi_offset %r14, -32
	.cfi_offset %r15, -24
	movq	%r9, -48(%rbp)          # 8-byte Spill
	movq	%r8, %r15
	movq	%rcx, %r12
	movq	%rdx, %r13
	movq	%rsi, %rbx
	movq	%rdi, %r14
	movq	24(%rbp), %rax
	movq	16(%rbp), %rax
	movl	$142, __profile__funcID
	callq	__profile__record_time_begin
	movq	%rax, -56(%rbp)         # 8-byte Spill
	movq	%r14, -104(%rbp)
	movq	%rbx, -96(%rbp)
	movq	%r13, -88(%rbp)
	movq	%r12, -80(%rbp)
	movq	%r15, -72(%rbp)
	movq	-48(%rbp), %rax         # 8-byte Reload
	movq	%rax, -64(%rbp)
	movq	-104(%rbp), %rdi
	movq	-96(%rbp), %rsi
	movq	-88(%rbp), %rdx
	movq	-80(%rbp), %rcx
	movq	-72(%rbp), %r8
	movq	-64(%rbp), %r9
	movq	16(%rbp), %rax
	movq	24(%rbp), %rbx
	movq	%rax, (%rsp)
	movq	%rbx, 8(%rsp)
	callq	mpi_alltoall_
	movabsq	$.L__unnamed_17, %rdi
	movq	-56(%rbp), %rsi         # 8-byte Reload
	callq	__profile__record_time_end
	addq	$120, %rsp
	popq	%rbx
	popq	%r12
	popq	%r13
	popq	%r14
	popq	%r15
	popq	%rbp
	.cfi_def_cfa %rsp, 8
	retq
.Lfunc_end16:
	.size	mpi_alltoall__, .Lfunc_end16-mpi_alltoall__
	.cfi_endproc
                                        # -- End function
	.globl	MPI_ALLTOALL            # -- Begin function MPI_ALLTOALL
	.p2align	4, 0x90
	.type	MPI_ALLTOALL,@function
MPI_ALLTOALL:                           # @MPI_ALLTOALL
	.cfi_startproc
# %bb.0:                                # %entry
	pushq	%rbp
	.cfi_def_cfa_offset 16
	.cfi_offset %rbp, -16
	movq	%rsp, %rbp
	.cfi_def_cfa_register %rbp
	pushq	%r15
	pushq	%r14
	pushq	%r13
	pushq	%r12
	pushq	%rbx
	subq	$120, %rsp
	.cfi_offset %rbx, -56
	.cfi_offset %r12, -48
	.cfi_offset %r13, -40
	.cfi_offset %r14, -32
	.cfi_offset %r15, -24
	movq	%r9, -48(%rbp)          # 8-byte Spill
	movq	%r8, %r15
	movq	%rcx, %r12
	movq	%rdx, %r13
	movq	%rsi, %rbx
	movq	%rdi, %r14
	movq	24(%rbp), %rax
	movq	16(%rbp), %rax
	movl	$143, __profile__funcID
	callq	__profile__record_time_begin
	movq	%rax, -56(%rbp)         # 8-byte Spill
	movq	%r14, -104(%rbp)
	movq	%rbx, -96(%rbp)
	movq	%r13, -88(%rbp)
	movq	%r12, -80(%rbp)
	movq	%r15, -72(%rbp)
	movq	-48(%rbp), %rax         # 8-byte Reload
	movq	%rax, -64(%rbp)
	movq	-104(%rbp), %rdi
	movq	-96(%rbp), %rsi
	movq	-88(%rbp), %rdx
	movq	-80(%rbp), %rcx
	movq	-72(%rbp), %r8
	movq	-64(%rbp), %r9
	movq	16(%rbp), %rax
	movq	24(%rbp), %rbx
	movq	%rax, (%rsp)
	movq	%rbx, 8(%rsp)
	callq	mpi_alltoall_
	movabsq	$.L__unnamed_18, %rdi
	movq	-56(%rbp), %rsi         # 8-byte Reload
	callq	__profile__record_time_end
	addq	$120, %rsp
	popq	%rbx
	popq	%r12
	popq	%r13
	popq	%r14
	popq	%r15
	popq	%rbp
	.cfi_def_cfa %rsp, 8
	retq
.Lfunc_end17:
	.size	MPI_ALLTOALL, .Lfunc_end17-MPI_ALLTOALL
	.cfi_endproc
                                        # -- End function
	.globl	MPI_ALLTOALL_           # -- Begin function MPI_ALLTOALL_
	.p2align	4, 0x90
	.type	MPI_ALLTOALL_,@function
MPI_ALLTOALL_:                          # @MPI_ALLTOALL_
	.cfi_startproc
# %bb.0:                                # %entry
	pushq	%rbp
	.cfi_def_cfa_offset 16
	.cfi_offset %rbp, -16
	movq	%rsp, %rbp
	.cfi_def_cfa_register %rbp
	pushq	%r15
	pushq	%r14
	pushq	%r13
	pushq	%r12
	pushq	%rbx
	subq	$120, %rsp
	.cfi_offset %rbx, -56
	.cfi_offset %r12, -48
	.cfi_offset %r13, -40
	.cfi_offset %r14, -32
	.cfi_offset %r15, -24
	movq	%r9, -48(%rbp)          # 8-byte Spill
	movq	%r8, %r15
	movq	%rcx, %r12
	movq	%rdx, %r13
	movq	%rsi, %rbx
	movq	%rdi, %r14
	movq	24(%rbp), %rax
	movq	16(%rbp), %rax
	movl	$144, __profile__funcID
	callq	__profile__record_time_begin
	movq	%rax, -56(%rbp)         # 8-byte Spill
	movq	%r14, -104(%rbp)
	movq	%rbx, -96(%rbp)
	movq	%r13, -88(%rbp)
	movq	%r12, -80(%rbp)
	movq	%r15, -72(%rbp)
	movq	-48(%rbp), %rax         # 8-byte Reload
	movq	%rax, -64(%rbp)
	movq	-104(%rbp), %rdi
	movq	-96(%rbp), %rsi
	movq	-88(%rbp), %rdx
	movq	-80(%rbp), %rcx
	movq	-72(%rbp), %r8
	movq	-64(%rbp), %r9
	movq	16(%rbp), %rax
	movq	24(%rbp), %rbx
	movq	%rax, (%rsp)
	movq	%rbx, 8(%rsp)
	callq	mpi_alltoall_
	movabsq	$.L__unnamed_19, %rdi
	movq	-56(%rbp), %rsi         # 8-byte Reload
	callq	__profile__record_time_end
	addq	$120, %rsp
	popq	%rbx
	popq	%r12
	popq	%r13
	popq	%r14
	popq	%r15
	popq	%rbp
	.cfi_def_cfa %rsp, 8
	retq
.Lfunc_end18:
	.size	MPI_ALLTOALL_, .Lfunc_end18-MPI_ALLTOALL_
	.cfi_endproc
                                        # -- End function
	.globl	mpi_alltoall            # -- Begin function mpi_alltoall
	.p2align	4, 0x90
	.type	mpi_alltoall,@function
mpi_alltoall:                           # @mpi_alltoall
	.cfi_startproc
# %bb.0:                                # %entry
	pushq	%rbp
	.cfi_def_cfa_offset 16
	.cfi_offset %rbp, -16
	movq	%rsp, %rbp
	.cfi_def_cfa_register %rbp
	pushq	%r15
	pushq	%r14
	pushq	%r13
	pushq	%r12
	pushq	%rbx
	subq	$120, %rsp
	.cfi_offset %rbx, -56
	.cfi_offset %r12, -48
	.cfi_offset %r13, -40
	.cfi_offset %r14, -32
	.cfi_offset %r15, -24
	movq	%r9, -48(%rbp)          # 8-byte Spill
	movq	%r8, %r15
	movq	%rcx, %r12
	movq	%rdx, %r13
	movq	%rsi, %rbx
	movq	%rdi, %r14
	movq	24(%rbp), %rax
	movq	16(%rbp), %rax
	movl	$145, __profile__funcID
	callq	__profile__record_time_begin
	movq	%rax, -56(%rbp)         # 8-byte Spill
	movq	%r14, -104(%rbp)
	movq	%rbx, -96(%rbp)
	movq	%r13, -88(%rbp)
	movq	%r12, -80(%rbp)
	movq	%r15, -72(%rbp)
	movq	-48(%rbp), %rax         # 8-byte Reload
	movq	%rax, -64(%rbp)
	movq	-104(%rbp), %rdi
	movq	-96(%rbp), %rsi
	movq	-88(%rbp), %rdx
	movq	-80(%rbp), %rcx
	movq	-72(%rbp), %r8
	movq	-64(%rbp), %r9
	movq	16(%rbp), %rax
	movq	24(%rbp), %rbx
	movq	%rax, (%rsp)
	movq	%rbx, 8(%rsp)
	callq	mpi_alltoall_
	movabsq	$.L__unnamed_20, %rdi
	movq	-56(%rbp), %rsi         # 8-byte Reload
	callq	__profile__record_time_end
	addq	$120, %rsp
	popq	%rbx
	popq	%r12
	popq	%r13
	popq	%r14
	popq	%r15
	popq	%rbp
	.cfi_def_cfa %rsp, 8
	retq
.Lfunc_end19:
	.size	mpi_alltoall, .Lfunc_end19-mpi_alltoall
	.cfi_endproc
                                        # -- End function
	.globl	mpi_alltoallv_          # -- Begin function mpi_alltoallv_
	.p2align	4, 0x90
	.type	mpi_alltoallv_,@function
mpi_alltoallv_:                         # @mpi_alltoallv_
	.cfi_startproc
# %bb.0:                                # %entry
	pushq	%rbp
	.cfi_def_cfa_offset 16
	.cfi_offset %rbp, -16
	movq	%rsp, %rbp
	.cfi_def_cfa_register %rbp
	pushq	%r15
	pushq	%r14
	pushq	%r13
	pushq	%r12
	pushq	%rbx
	subq	$136, %rsp
	.cfi_offset %rbx, -56
	.cfi_offset %r12, -48
	.cfi_offset %r13, -40
	.cfi_offset %r14, -32
	.cfi_offset %r15, -24
	movq	%r9, -48(%rbp)          # 8-byte Spill
	movq	%r8, %r12
	movq	%rcx, %r13
	movq	%rdx, %rbx
	movq	%rsi, %r14
	movq	%rdi, %r15
	movq	40(%rbp), %rax
	movq	32(%rbp), %rax
	movq	24(%rbp), %rax
	movq	16(%rbp), %rax
	movl	$146, __profile__funcID
	callq	__profile__record_time_begin
	movq	%rax, -56(%rbp)         # 8-byte Spill
	movq	%r15, -104(%rbp)
	movq	%r14, -96(%rbp)
	movq	%rbx, -88(%rbp)
	movq	%r13, -80(%rbp)
	movq	%r12, -72(%rbp)
	movq	-48(%rbp), %rax         # 8-byte Reload
	movq	%rax, -64(%rbp)
	movq	-104(%rbp), %rdi
	movq	-96(%rbp), %rsi
	movq	-88(%rbp), %rdx
	movq	-80(%rbp), %rax
	movl	(%rax), %ecx
	movq	-72(%rbp), %r8
	movq	-64(%rbp), %r9
	movq	16(%rbp), %r10
	movq	24(%rbp), %rbx
	movl	(%rbx), %ebx
	movq	32(%rbp), %rax
	movl	(%rax), %eax
	movq	%r10, (%rsp)
	movl	%ebx, 8(%rsp)
	movl	%eax, 16(%rsp)
	callq	MPI_Alltoallv
	movq	40(%rbp), %rcx
	movl	%eax, (%rcx)
	movabsq	$.L__unnamed_21, %rdi
	movq	-56(%rbp), %rsi         # 8-byte Reload
	callq	__profile__record_time_end
	addq	$136, %rsp
	popq	%rbx
	popq	%r12
	popq	%r13
	popq	%r14
	popq	%r15
	popq	%rbp
	.cfi_def_cfa %rsp, 8
	retq
.Lfunc_end20:
	.size	mpi_alltoallv_, .Lfunc_end20-mpi_alltoallv_
	.cfi_endproc
                                        # -- End function
	.globl	mpi_alltoallv__         # -- Begin function mpi_alltoallv__
	.p2align	4, 0x90
	.type	mpi_alltoallv__,@function
mpi_alltoallv__:                        # @mpi_alltoallv__
	.cfi_startproc
# %bb.0:                                # %entry
	pushq	%rbp
	.cfi_def_cfa_offset 16
	.cfi_offset %rbp, -16
	movq	%rsp, %rbp
	.cfi_def_cfa_register %rbp
	pushq	%r15
	pushq	%r14
	pushq	%r13
	pushq	%r12
	pushq	%rbx
	subq	$136, %rsp
	.cfi_offset %rbx, -56
	.cfi_offset %r12, -48
	.cfi_offset %r13, -40
	.cfi_offset %r14, -32
	.cfi_offset %r15, -24
	movq	%r9, -48(%rbp)          # 8-byte Spill
	movq	%r8, %r15
	movq	%rcx, %r12
	movq	%rdx, %r13
	movq	%rsi, %rbx
	movq	%rdi, %r14
	movq	40(%rbp), %rax
	movq	32(%rbp), %rax
	movq	24(%rbp), %rax
	movq	16(%rbp), %rax
	movl	$147, __profile__funcID
	callq	__profile__record_time_begin
	movq	%rax, -56(%rbp)         # 8-byte Spill
	movq	%r14, -104(%rbp)
	movq	%rbx, -96(%rbp)
	movq	%r13, -88(%rbp)
	movq	%r12, -80(%rbp)
	movq	%r15, -72(%rbp)
	movq	-48(%rbp), %rax         # 8-byte Reload
	movq	%rax, -64(%rbp)
	movq	-104(%rbp), %rdi
	movq	-96(%rbp), %rsi
	movq	-88(%rbp), %rdx
	movq	-80(%rbp), %rcx
	movq	-72(%rbp), %r8
	movq	-64(%rbp), %r9
	movq	16(%rbp), %rax
	movq	24(%rbp), %rbx
	movq	32(%rbp), %r10
	movq	40(%rbp), %r11
	movq	%rax, (%rsp)
	movq	%rbx, 8(%rsp)
	movq	%r10, 16(%rsp)
	movq	%r11, 24(%rsp)
	callq	mpi_alltoallv_
	movabsq	$.L__unnamed_22, %rdi
	movq	-56(%rbp), %rsi         # 8-byte Reload
	callq	__profile__record_time_end
	addq	$136, %rsp
	popq	%rbx
	popq	%r12
	popq	%r13
	popq	%r14
	popq	%r15
	popq	%rbp
	.cfi_def_cfa %rsp, 8
	retq
.Lfunc_end21:
	.size	mpi_alltoallv__, .Lfunc_end21-mpi_alltoallv__
	.cfi_endproc
                                        # -- End function
	.globl	MPI_ALLTOALLV           # -- Begin function MPI_ALLTOALLV
	.p2align	4, 0x90
	.type	MPI_ALLTOALLV,@function
MPI_ALLTOALLV:                          # @MPI_ALLTOALLV
	.cfi_startproc
# %bb.0:                                # %entry
	pushq	%rbp
	.cfi_def_cfa_offset 16
	.cfi_offset %rbp, -16
	movq	%rsp, %rbp
	.cfi_def_cfa_register %rbp
	pushq	%r15
	pushq	%r14
	pushq	%r13
	pushq	%r12
	pushq	%rbx
	subq	$136, %rsp
	.cfi_offset %rbx, -56
	.cfi_offset %r12, -48
	.cfi_offset %r13, -40
	.cfi_offset %r14, -32
	.cfi_offset %r15, -24
	movq	%r9, -48(%rbp)          # 8-byte Spill
	movq	%r8, %r15
	movq	%rcx, %r12
	movq	%rdx, %r13
	movq	%rsi, %rbx
	movq	%rdi, %r14
	movq	40(%rbp), %rax
	movq	32(%rbp), %rax
	movq	24(%rbp), %rax
	movq	16(%rbp), %rax
	movl	$148, __profile__funcID
	callq	__profile__record_time_begin
	movq	%rax, -56(%rbp)         # 8-byte Spill
	movq	%r14, -104(%rbp)
	movq	%rbx, -96(%rbp)
	movq	%r13, -88(%rbp)
	movq	%r12, -80(%rbp)
	movq	%r15, -72(%rbp)
	movq	-48(%rbp), %rax         # 8-byte Reload
	movq	%rax, -64(%rbp)
	movq	-104(%rbp), %rdi
	movq	-96(%rbp), %rsi
	movq	-88(%rbp), %rdx
	movq	-80(%rbp), %rcx
	movq	-72(%rbp), %r8
	movq	-64(%rbp), %r9
	movq	16(%rbp), %rax
	movq	24(%rbp), %rbx
	movq	32(%rbp), %r10
	movq	40(%rbp), %r11
	movq	%rax, (%rsp)
	movq	%rbx, 8(%rsp)
	movq	%r10, 16(%rsp)
	movq	%r11, 24(%rsp)
	callq	mpi_alltoallv_
	movabsq	$.L__unnamed_23, %rdi
	movq	-56(%rbp), %rsi         # 8-byte Reload
	callq	__profile__record_time_end
	addq	$136, %rsp
	popq	%rbx
	popq	%r12
	popq	%r13
	popq	%r14
	popq	%r15
	popq	%rbp
	.cfi_def_cfa %rsp, 8
	retq
.Lfunc_end22:
	.size	MPI_ALLTOALLV, .Lfunc_end22-MPI_ALLTOALLV
	.cfi_endproc
                                        # -- End function
	.globl	MPI_ALLTOALLV_          # -- Begin function MPI_ALLTOALLV_
	.p2align	4, 0x90
	.type	MPI_ALLTOALLV_,@function
MPI_ALLTOALLV_:                         # @MPI_ALLTOALLV_
	.cfi_startproc
# %bb.0:                                # %entry
	pushq	%rbp
	.cfi_def_cfa_offset 16
	.cfi_offset %rbp, -16
	movq	%rsp, %rbp
	.cfi_def_cfa_register %rbp
	pushq	%r15
	pushq	%r14
	pushq	%r13
	pushq	%r12
	pushq	%rbx
	subq	$136, %rsp
	.cfi_offset %rbx, -56
	.cfi_offset %r12, -48
	.cfi_offset %r13, -40
	.cfi_offset %r14, -32
	.cfi_offset %r15, -24
	movq	%r9, -48(%rbp)          # 8-byte Spill
	movq	%r8, %r15
	movq	%rcx, %r12
	movq	%rdx, %r13
	movq	%rsi, %rbx
	movq	%rdi, %r14
	movq	40(%rbp), %rax
	movq	32(%rbp), %rax
	movq	24(%rbp), %rax
	movq	16(%rbp), %rax
	movl	$149, __profile__funcID
	callq	__profile__record_time_begin
	movq	%rax, -56(%rbp)         # 8-byte Spill
	movq	%r14, -104(%rbp)
	movq	%rbx, -96(%rbp)
	movq	%r13, -88(%rbp)
	movq	%r12, -80(%rbp)
	movq	%r15, -72(%rbp)
	movq	-48(%rbp), %rax         # 8-byte Reload
	movq	%rax, -64(%rbp)
	movq	-104(%rbp), %rdi
	movq	-96(%rbp), %rsi
	movq	-88(%rbp), %rdx
	movq	-80(%rbp), %rcx
	movq	-72(%rbp), %r8
	movq	-64(%rbp), %r9
	movq	16(%rbp), %rax
	movq	24(%rbp), %rbx
	movq	32(%rbp), %r10
	movq	40(%rbp), %r11
	movq	%rax, (%rsp)
	movq	%rbx, 8(%rsp)
	movq	%r10, 16(%rsp)
	movq	%r11, 24(%rsp)
	callq	mpi_alltoallv_
	movabsq	$.L__unnamed_24, %rdi
	movq	-56(%rbp), %rsi         # 8-byte Reload
	callq	__profile__record_time_end
	addq	$136, %rsp
	popq	%rbx
	popq	%r12
	popq	%r13
	popq	%r14
	popq	%r15
	popq	%rbp
	.cfi_def_cfa %rsp, 8
	retq
.Lfunc_end23:
	.size	MPI_ALLTOALLV_, .Lfunc_end23-MPI_ALLTOALLV_
	.cfi_endproc
                                        # -- End function
	.globl	mpi_alltoallv           # -- Begin function mpi_alltoallv
	.p2align	4, 0x90
	.type	mpi_alltoallv,@function
mpi_alltoallv:                          # @mpi_alltoallv
	.cfi_startproc
# %bb.0:                                # %entry
	pushq	%rbp
	.cfi_def_cfa_offset 16
	.cfi_offset %rbp, -16
	movq	%rsp, %rbp
	.cfi_def_cfa_register %rbp
	pushq	%r15
	pushq	%r14
	pushq	%r13
	pushq	%r12
	pushq	%rbx
	subq	$136, %rsp
	.cfi_offset %rbx, -56
	.cfi_offset %r12, -48
	.cfi_offset %r13, -40
	.cfi_offset %r14, -32
	.cfi_offset %r15, -24
	movq	%r9, -48(%rbp)          # 8-byte Spill
	movq	%r8, %r15
	movq	%rcx, %r12
	movq	%rdx, %r13
	movq	%rsi, %rbx
	movq	%rdi, %r14
	movq	40(%rbp), %rax
	movq	32(%rbp), %rax
	movq	24(%rbp), %rax
	movq	16(%rbp), %rax
	movl	$150, __profile__funcID
	callq	__profile__record_time_begin
	movq	%rax, -56(%rbp)         # 8-byte Spill
	movq	%r14, -104(%rbp)
	movq	%rbx, -96(%rbp)
	movq	%r13, -88(%rbp)
	movq	%r12, -80(%rbp)
	movq	%r15, -72(%rbp)
	movq	-48(%rbp), %rax         # 8-byte Reload
	movq	%rax, -64(%rbp)
	movq	-104(%rbp), %rdi
	movq	-96(%rbp), %rsi
	movq	-88(%rbp), %rdx
	movq	-80(%rbp), %rcx
	movq	-72(%rbp), %r8
	movq	-64(%rbp), %r9
	movq	16(%rbp), %rax
	movq	24(%rbp), %rbx
	movq	32(%rbp), %r10
	movq	40(%rbp), %r11
	movq	%rax, (%rsp)
	movq	%rbx, 8(%rsp)
	movq	%r10, 16(%rsp)
	movq	%r11, 24(%rsp)
	callq	mpi_alltoallv_
	movabsq	$.L__unnamed_25, %rdi
	movq	-56(%rbp), %rsi         # 8-byte Reload
	callq	__profile__record_time_end
	addq	$136, %rsp
	popq	%rbx
	popq	%r12
	popq	%r13
	popq	%r14
	popq	%r15
	popq	%rbp
	.cfi_def_cfa %rsp, 8
	retq
.Lfunc_end24:
	.size	mpi_alltoallv, .Lfunc_end24-mpi_alltoallv
	.cfi_endproc
                                        # -- End function
	.globl	mpi_barrier_            # -- Begin function mpi_barrier_
	.p2align	4, 0x90
	.type	mpi_barrier_,@function
mpi_barrier_:                           # @mpi_barrier_
	.cfi_startproc
# %bb.0:                                # %entry
	pushq	%rbp
	.cfi_def_cfa_offset 16
	.cfi_offset %rbp, -16
	movq	%rsp, %rbp
	.cfi_def_cfa_register %rbp
	pushq	%r15
	pushq	%r14
	pushq	%rbx
	subq	$56, %rsp
	.cfi_offset %rbx, -40
	.cfi_offset %r14, -32
	.cfi_offset %r15, -24
	movq	%rsi, %r14
	movq	%rdi, %rbx
	movl	$151, __profile__funcID
	callq	__profile__record_time_begin
	movq	%rax, %r15
	movq	%rbx, -40(%rbp)
	movq	%r14, -32(%rbp)
	movq	-40(%rbp), %rax
	movl	(%rax), %edi
	callq	MPI_Barrier
	movq	-32(%rbp), %rcx
	movl	%eax, (%rcx)
	movabsq	$.L__unnamed_26, %rdi
	movq	%r15, %rsi
	callq	__profile__record_time_end
	addq	$56, %rsp
	popq	%rbx
	popq	%r14
	popq	%r15
	popq	%rbp
	.cfi_def_cfa %rsp, 8
	retq
.Lfunc_end25:
	.size	mpi_barrier_, .Lfunc_end25-mpi_barrier_
	.cfi_endproc
                                        # -- End function
	.globl	mpi_barrier__           # -- Begin function mpi_barrier__
	.p2align	4, 0x90
	.type	mpi_barrier__,@function
mpi_barrier__:                          # @mpi_barrier__
	.cfi_startproc
# %bb.0:                                # %entry
	pushq	%rbp
	.cfi_def_cfa_offset 16
	.cfi_offset %rbp, -16
	movq	%rsp, %rbp
	.cfi_def_cfa_register %rbp
	pushq	%r15
	pushq	%r14
	pushq	%rbx
	subq	$56, %rsp
	.cfi_offset %rbx, -40
	.cfi_offset %r14, -32
	.cfi_offset %r15, -24
	movq	%rsi, %r14
	movq	%rdi, %rbx
	movl	$152, __profile__funcID
	callq	__profile__record_time_begin
	movq	%rax, %r15
	movq	%rbx, -40(%rbp)
	movq	%r14, -32(%rbp)
	movq	-40(%rbp), %rdi
	movq	-32(%rbp), %rsi
	callq	mpi_barrier_
	movabsq	$.L__unnamed_27, %rdi
	movq	%r15, %rsi
	callq	__profile__record_time_end
	addq	$56, %rsp
	popq	%rbx
	popq	%r14
	popq	%r15
	popq	%rbp
	.cfi_def_cfa %rsp, 8
	retq
.Lfunc_end26:
	.size	mpi_barrier__, .Lfunc_end26-mpi_barrier__
	.cfi_endproc
                                        # -- End function
	.globl	MPI_BARRIER             # -- Begin function MPI_BARRIER
	.p2align	4, 0x90
	.type	MPI_BARRIER,@function
MPI_BARRIER:                            # @MPI_BARRIER
	.cfi_startproc
# %bb.0:                                # %entry
	pushq	%rbp
	.cfi_def_cfa_offset 16
	.cfi_offset %rbp, -16
	movq	%rsp, %rbp
	.cfi_def_cfa_register %rbp
	pushq	%r15
	pushq	%r14
	pushq	%rbx
	subq	$56, %rsp
	.cfi_offset %rbx, -40
	.cfi_offset %r14, -32
	.cfi_offset %r15, -24
	movq	%rsi, %r14
	movq	%rdi, %rbx
	movl	$153, __profile__funcID
	callq	__profile__record_time_begin
	movq	%rax, %r15
	movq	%rbx, -40(%rbp)
	movq	%r14, -32(%rbp)
	movq	-40(%rbp), %rdi
	movq	-32(%rbp), %rsi
	callq	mpi_barrier_
	movabsq	$.L__unnamed_28, %rdi
	movq	%r15, %rsi
	callq	__profile__record_time_end
	addq	$56, %rsp
	popq	%rbx
	popq	%r14
	popq	%r15
	popq	%rbp
	.cfi_def_cfa %rsp, 8
	retq
.Lfunc_end27:
	.size	MPI_BARRIER, .Lfunc_end27-MPI_BARRIER
	.cfi_endproc
                                        # -- End function
	.globl	MPI_BARRIER_            # -- Begin function MPI_BARRIER_
	.p2align	4, 0x90
	.type	MPI_BARRIER_,@function
MPI_BARRIER_:                           # @MPI_BARRIER_
	.cfi_startproc
# %bb.0:                                # %entry
	pushq	%rbp
	.cfi_def_cfa_offset 16
	.cfi_offset %rbp, -16
	movq	%rsp, %rbp
	.cfi_def_cfa_register %rbp
	pushq	%r15
	pushq	%r14
	pushq	%rbx
	subq	$56, %rsp
	.cfi_offset %rbx, -40
	.cfi_offset %r14, -32
	.cfi_offset %r15, -24
	movq	%rsi, %r14
	movq	%rdi, %rbx
	movl	$154, __profile__funcID
	callq	__profile__record_time_begin
	movq	%rax, %r15
	movq	%rbx, -40(%rbp)
	movq	%r14, -32(%rbp)
	movq	-40(%rbp), %rdi
	movq	-32(%rbp), %rsi
	callq	mpi_barrier_
	movabsq	$.L__unnamed_29, %rdi
	movq	%r15, %rsi
	callq	__profile__record_time_end
	addq	$56, %rsp
	popq	%rbx
	popq	%r14
	popq	%r15
	popq	%rbp
	.cfi_def_cfa %rsp, 8
	retq
.Lfunc_end28:
	.size	MPI_BARRIER_, .Lfunc_end28-MPI_BARRIER_
	.cfi_endproc
                                        # -- End function
	.globl	mpi_barrier             # -- Begin function mpi_barrier
	.p2align	4, 0x90
	.type	mpi_barrier,@function
mpi_barrier:                            # @mpi_barrier
	.cfi_startproc
# %bb.0:                                # %entry
	pushq	%rbp
	.cfi_def_cfa_offset 16
	.cfi_offset %rbp, -16
	movq	%rsp, %rbp
	.cfi_def_cfa_register %rbp
	pushq	%r15
	pushq	%r14
	pushq	%rbx
	subq	$56, %rsp
	.cfi_offset %rbx, -40
	.cfi_offset %r14, -32
	.cfi_offset %r15, -24
	movq	%rsi, %r14
	movq	%rdi, %rbx
	movl	$155, __profile__funcID
	callq	__profile__record_time_begin
	movq	%rax, %r15
	movq	%rbx, -40(%rbp)
	movq	%r14, -32(%rbp)
	movq	-40(%rbp), %rdi
	movq	-32(%rbp), %rsi
	callq	mpi_barrier_
	movabsq	$.L__unnamed_30, %rdi
	movq	%r15, %rsi
	callq	__profile__record_time_end
	addq	$56, %rsp
	popq	%rbx
	popq	%r14
	popq	%r15
	popq	%rbp
	.cfi_def_cfa %rsp, 8
	retq
.Lfunc_end29:
	.size	mpi_barrier, .Lfunc_end29-mpi_barrier
	.cfi_endproc
                                        # -- End function
	.globl	mpi_bcast_              # -- Begin function mpi_bcast_
	.p2align	4, 0x90
	.type	mpi_bcast_,@function
mpi_bcast_:                             # @mpi_bcast_
	.cfi_startproc
# %bb.0:                                # %entry
	pushq	%rbp
	.cfi_def_cfa_offset 16
	.cfi_offset %rbp, -16
	movq	%rsp, %rbp
	.cfi_def_cfa_register %rbp
	pushq	%r15
	pushq	%r14
	pushq	%r13
	pushq	%r12
	pushq	%rbx
	subq	$104, %rsp
	.cfi_offset %rbx, -56
	.cfi_offset %r12, -48
	.cfi_offset %r13, -40
	.cfi_offset %r14, -32
	.cfi_offset %r15, -24
	movq	%r9, -48(%rbp)          # 8-byte Spill
	movq	%r8, %r15
	movq	%rcx, %r12
	movq	%rdx, %r13
	movq	%rsi, %rbx
	movq	%rdi, %r14
	movl	$156, __profile__funcID
	callq	__profile__record_time_begin
	movq	%rax, -56(%rbp)         # 8-byte Spill
	movq	%r14, -104(%rbp)
	movq	%rbx, -96(%rbp)
	movq	%r13, -88(%rbp)
	movq	%r12, -80(%rbp)
	movq	%r15, -72(%rbp)
	movq	-48(%rbp), %rax         # 8-byte Reload
	movq	%rax, -64(%rbp)
	movq	-104(%rbp), %rdi
	movq	-96(%rbp), %rax
	movl	(%rax), %esi
	movq	-88(%rbp), %rax
	movl	(%rax), %edx
	movq	-80(%rbp), %rax
	movl	(%rax), %ecx
	movq	-72(%rbp), %rax
	movl	(%rax), %r8d
	callq	MPI_Bcast
	movq	-64(%rbp), %rcx
	movl	%eax, (%rcx)
	movabsq	$.L__unnamed_31, %rdi
	movq	-56(%rbp), %rsi         # 8-byte Reload
	callq	__profile__record_time_end
	addq	$104, %rsp
	popq	%rbx
	popq	%r12
	popq	%r13
	popq	%r14
	popq	%r15
	popq	%rbp
	.cfi_def_cfa %rsp, 8
	retq
.Lfunc_end30:
	.size	mpi_bcast_, .Lfunc_end30-mpi_bcast_
	.cfi_endproc
                                        # -- End function
	.globl	mpi_bcast__             # -- Begin function mpi_bcast__
	.p2align	4, 0x90
	.type	mpi_bcast__,@function
mpi_bcast__:                            # @mpi_bcast__
	.cfi_startproc
# %bb.0:                                # %entry
	pushq	%rbp
	.cfi_def_cfa_offset 16
	.cfi_offset %rbp, -16
	movq	%rsp, %rbp
	.cfi_def_cfa_register %rbp
	pushq	%r15
	pushq	%r14
	pushq	%r13
	pushq	%r12
	pushq	%rbx
	subq	$104, %rsp
	.cfi_offset %rbx, -56
	.cfi_offset %r12, -48
	.cfi_offset %r13, -40
	.cfi_offset %r14, -32
	.cfi_offset %r15, -24
	movq	%r9, -48(%rbp)          # 8-byte Spill
	movq	%r8, %r15
	movq	%rcx, %r12
	movq	%rdx, %r13
	movq	%rsi, %rbx
	movq	%rdi, %r14
	movl	$157, __profile__funcID
	callq	__profile__record_time_begin
	movq	%rax, -56(%rbp)         # 8-byte Spill
	movq	%r14, -104(%rbp)
	movq	%rbx, -96(%rbp)
	movq	%r13, -88(%rbp)
	movq	%r12, -80(%rbp)
	movq	%r15, -72(%rbp)
	movq	-48(%rbp), %rax         # 8-byte Reload
	movq	%rax, -64(%rbp)
	movq	-104(%rbp), %rdi
	movq	-96(%rbp), %rsi
	movq	-88(%rbp), %rdx
	movq	-80(%rbp), %rcx
	movq	-72(%rbp), %r8
	movq	-64(%rbp), %r9
	callq	mpi_bcast_
	movabsq	$.L__unnamed_32, %rdi
	movq	-56(%rbp), %rsi         # 8-byte Reload
	callq	__profile__record_time_end
	addq	$104, %rsp
	popq	%rbx
	popq	%r12
	popq	%r13
	popq	%r14
	popq	%r15
	popq	%rbp
	.cfi_def_cfa %rsp, 8
	retq
.Lfunc_end31:
	.size	mpi_bcast__, .Lfunc_end31-mpi_bcast__
	.cfi_endproc
                                        # -- End function
	.globl	MPI_BCAST               # -- Begin function MPI_BCAST
	.p2align	4, 0x90
	.type	MPI_BCAST,@function
MPI_BCAST:                              # @MPI_BCAST
	.cfi_startproc
# %bb.0:                                # %entry
	pushq	%rbp
	.cfi_def_cfa_offset 16
	.cfi_offset %rbp, -16
	movq	%rsp, %rbp
	.cfi_def_cfa_register %rbp
	pushq	%r15
	pushq	%r14
	pushq	%r13
	pushq	%r12
	pushq	%rbx
	subq	$104, %rsp
	.cfi_offset %rbx, -56
	.cfi_offset %r12, -48
	.cfi_offset %r13, -40
	.cfi_offset %r14, -32
	.cfi_offset %r15, -24
	movq	%r9, -48(%rbp)          # 8-byte Spill
	movq	%r8, %r15
	movq	%rcx, %r12
	movq	%rdx, %r13
	movq	%rsi, %rbx
	movq	%rdi, %r14
	movl	$158, __profile__funcID
	callq	__profile__record_time_begin
	movq	%rax, -56(%rbp)         # 8-byte Spill
	movq	%r14, -104(%rbp)
	movq	%rbx, -96(%rbp)
	movq	%r13, -88(%rbp)
	movq	%r12, -80(%rbp)
	movq	%r15, -72(%rbp)
	movq	-48(%rbp), %rax         # 8-byte Reload
	movq	%rax, -64(%rbp)
	movq	-104(%rbp), %rdi
	movq	-96(%rbp), %rsi
	movq	-88(%rbp), %rdx
	movq	-80(%rbp), %rcx
	movq	-72(%rbp), %r8
	movq	-64(%rbp), %r9
	callq	mpi_bcast_
	movabsq	$.L__unnamed_33, %rdi
	movq	-56(%rbp), %rsi         # 8-byte Reload
	callq	__profile__record_time_end
	addq	$104, %rsp
	popq	%rbx
	popq	%r12
	popq	%r13
	popq	%r14
	popq	%r15
	popq	%rbp
	.cfi_def_cfa %rsp, 8
	retq
.Lfunc_end32:
	.size	MPI_BCAST, .Lfunc_end32-MPI_BCAST
	.cfi_endproc
                                        # -- End function
	.globl	MPI_BCAST_              # -- Begin function MPI_BCAST_
	.p2align	4, 0x90
	.type	MPI_BCAST_,@function
MPI_BCAST_:                             # @MPI_BCAST_
	.cfi_startproc
# %bb.0:                                # %entry
	pushq	%rbp
	.cfi_def_cfa_offset 16
	.cfi_offset %rbp, -16
	movq	%rsp, %rbp
	.cfi_def_cfa_register %rbp
	pushq	%r15
	pushq	%r14
	pushq	%r13
	pushq	%r12
	pushq	%rbx
	subq	$104, %rsp
	.cfi_offset %rbx, -56
	.cfi_offset %r12, -48
	.cfi_offset %r13, -40
	.cfi_offset %r14, -32
	.cfi_offset %r15, -24
	movq	%r9, -48(%rbp)          # 8-byte Spill
	movq	%r8, %r15
	movq	%rcx, %r12
	movq	%rdx, %r13
	movq	%rsi, %rbx
	movq	%rdi, %r14
	movl	$159, __profile__funcID
	callq	__profile__record_time_begin
	movq	%rax, -56(%rbp)         # 8-byte Spill
	movq	%r14, -104(%rbp)
	movq	%rbx, -96(%rbp)
	movq	%r13, -88(%rbp)
	movq	%r12, -80(%rbp)
	movq	%r15, -72(%rbp)
	movq	-48(%rbp), %rax         # 8-byte Reload
	movq	%rax, -64(%rbp)
	movq	-104(%rbp), %rdi
	movq	-96(%rbp), %rsi
	movq	-88(%rbp), %rdx
	movq	-80(%rbp), %rcx
	movq	-72(%rbp), %r8
	movq	-64(%rbp), %r9
	callq	mpi_bcast_
	movabsq	$.L__unnamed_34, %rdi
	movq	-56(%rbp), %rsi         # 8-byte Reload
	callq	__profile__record_time_end
	addq	$104, %rsp
	popq	%rbx
	popq	%r12
	popq	%r13
	popq	%r14
	popq	%r15
	popq	%rbp
	.cfi_def_cfa %rsp, 8
	retq
.Lfunc_end33:
	.size	MPI_BCAST_, .Lfunc_end33-MPI_BCAST_
	.cfi_endproc
                                        # -- End function
	.globl	mpi_bcast               # -- Begin function mpi_bcast
	.p2align	4, 0x90
	.type	mpi_bcast,@function
mpi_bcast:                              # @mpi_bcast
	.cfi_startproc
# %bb.0:                                # %entry
	pushq	%rbp
	.cfi_def_cfa_offset 16
	.cfi_offset %rbp, -16
	movq	%rsp, %rbp
	.cfi_def_cfa_register %rbp
	pushq	%r15
	pushq	%r14
	pushq	%r13
	pushq	%r12
	pushq	%rbx
	subq	$104, %rsp
	.cfi_offset %rbx, -56
	.cfi_offset %r12, -48
	.cfi_offset %r13, -40
	.cfi_offset %r14, -32
	.cfi_offset %r15, -24
	movq	%r9, -48(%rbp)          # 8-byte Spill
	movq	%r8, %r15
	movq	%rcx, %r12
	movq	%rdx, %r13
	movq	%rsi, %rbx
	movq	%rdi, %r14
	movl	$160, __profile__funcID
	callq	__profile__record_time_begin
	movq	%rax, -56(%rbp)         # 8-byte Spill
	movq	%r14, -104(%rbp)
	movq	%rbx, -96(%rbp)
	movq	%r13, -88(%rbp)
	movq	%r12, -80(%rbp)
	movq	%r15, -72(%rbp)
	movq	-48(%rbp), %rax         # 8-byte Reload
	movq	%rax, -64(%rbp)
	movq	-104(%rbp), %rdi
	movq	-96(%rbp), %rsi
	movq	-88(%rbp), %rdx
	movq	-80(%rbp), %rcx
	movq	-72(%rbp), %r8
	movq	-64(%rbp), %r9
	callq	mpi_bcast_
	movabsq	$.L__unnamed_35, %rdi
	movq	-56(%rbp), %rsi         # 8-byte Reload
	callq	__profile__record_time_end
	addq	$104, %rsp
	popq	%rbx
	popq	%r12
	popq	%r13
	popq	%r14
	popq	%r15
	popq	%rbp
	.cfi_def_cfa %rsp, 8
	retq
.Lfunc_end34:
	.size	mpi_bcast, .Lfunc_end34-mpi_bcast
	.cfi_endproc
                                        # -- End function
	.globl	mpi_gather_             # -- Begin function mpi_gather_
	.p2align	4, 0x90
	.type	mpi_gather_,@function
mpi_gather_:                            # @mpi_gather_
	.cfi_startproc
# %bb.0:                                # %entry
	pushq	%rbp
	.cfi_def_cfa_offset 16
	.cfi_offset %rbp, -16
	movq	%rsp, %rbp
	.cfi_def_cfa_register %rbp
	pushq	%r15
	pushq	%r14
	pushq	%r13
	pushq	%r12
	pushq	%rbx
	subq	$120, %rsp
	.cfi_offset %rbx, -56
	.cfi_offset %r12, -48
	.cfi_offset %r13, -40
	.cfi_offset %r14, -32
	.cfi_offset %r15, -24
	movq	%r9, -48(%rbp)          # 8-byte Spill
	movq	%r8, %r12
	movq	%rcx, %r13
	movq	%rdx, %rbx
	movq	%rsi, %r14
	movq	%rdi, %r15
	movq	32(%rbp), %rax
	movq	24(%rbp), %rax
	movq	16(%rbp), %rax
	movl	$161, __profile__funcID
	callq	__profile__record_time_begin
	movq	%rax, -56(%rbp)         # 8-byte Spill
	movq	%r15, -104(%rbp)
	movq	%r14, -96(%rbp)
	movq	%rbx, -88(%rbp)
	movq	%r13, -80(%rbp)
	movq	%r12, -72(%rbp)
	movq	-48(%rbp), %rax         # 8-byte Reload
	movq	%rax, -64(%rbp)
	movq	-104(%rbp), %rdi
	movq	-96(%rbp), %rax
	movl	(%rax), %esi
	movq	-88(%rbp), %rax
	movl	(%rax), %edx
	movq	-80(%rbp), %rcx
	movq	-72(%rbp), %rax
	movl	(%rax), %r8d
	movq	-64(%rbp), %rax
	movl	(%rax), %r9d
	movq	16(%rbp), %rax
	movl	(%rax), %eax
	movq	24(%rbp), %rbx
	movl	(%rbx), %ebx
	movl	%eax, (%rsp)
	movl	%ebx, 8(%rsp)
	callq	MPI_Gather
	movq	32(%rbp), %rcx
	movl	%eax, (%rcx)
	movabsq	$.L__unnamed_36, %rdi
	movq	-56(%rbp), %rsi         # 8-byte Reload
	callq	__profile__record_time_end
	addq	$120, %rsp
	popq	%rbx
	popq	%r12
	popq	%r13
	popq	%r14
	popq	%r15
	popq	%rbp
	.cfi_def_cfa %rsp, 8
	retq
.Lfunc_end35:
	.size	mpi_gather_, .Lfunc_end35-mpi_gather_
	.cfi_endproc
                                        # -- End function
	.globl	mpi_gather__            # -- Begin function mpi_gather__
	.p2align	4, 0x90
	.type	mpi_gather__,@function
mpi_gather__:                           # @mpi_gather__
	.cfi_startproc
# %bb.0:                                # %entry
	pushq	%rbp
	.cfi_def_cfa_offset 16
	.cfi_offset %rbp, -16
	movq	%rsp, %rbp
	.cfi_def_cfa_register %rbp
	pushq	%r15
	pushq	%r14
	pushq	%r13
	pushq	%r12
	pushq	%rbx
	subq	$136, %rsp
	.cfi_offset %rbx, -56
	.cfi_offset %r12, -48
	.cfi_offset %r13, -40
	.cfi_offset %r14, -32
	.cfi_offset %r15, -24
	movq	%r9, -48(%rbp)          # 8-byte Spill
	movq	%r8, %r15
	movq	%rcx, %r12
	movq	%rdx, %r13
	movq	%rsi, %rbx
	movq	%rdi, %r14
	movq	32(%rbp), %rax
	movq	24(%rbp), %rax
	movq	16(%rbp), %rax
	movl	$162, __profile__funcID
	callq	__profile__record_time_begin
	movq	%rax, -56(%rbp)         # 8-byte Spill
	movq	%r14, -104(%rbp)
	movq	%rbx, -96(%rbp)
	movq	%r13, -88(%rbp)
	movq	%r12, -80(%rbp)
	movq	%r15, -72(%rbp)
	movq	-48(%rbp), %rax         # 8-byte Reload
	movq	%rax, -64(%rbp)
	movq	-104(%rbp), %rdi
	movq	-96(%rbp), %rsi
	movq	-88(%rbp), %rdx
	movq	-80(%rbp), %rcx
	movq	-72(%rbp), %r8
	movq	-64(%rbp), %r9
	movq	16(%rbp), %rax
	movq	24(%rbp), %rbx
	movq	32(%rbp), %r10
	movq	%rax, (%rsp)
	movq	%rbx, 8(%rsp)
	movq	%r10, 16(%rsp)
	callq	mpi_gather_
	movabsq	$.L__unnamed_37, %rdi
	movq	-56(%rbp), %rsi         # 8-byte Reload
	callq	__profile__record_time_end
	addq	$136, %rsp
	popq	%rbx
	popq	%r12
	popq	%r13
	popq	%r14
	popq	%r15
	popq	%rbp
	.cfi_def_cfa %rsp, 8
	retq
.Lfunc_end36:
	.size	mpi_gather__, .Lfunc_end36-mpi_gather__
	.cfi_endproc
                                        # -- End function
	.globl	MPI_GATHER              # -- Begin function MPI_GATHER
	.p2align	4, 0x90
	.type	MPI_GATHER,@function
MPI_GATHER:                             # @MPI_GATHER
	.cfi_startproc
# %bb.0:                                # %entry
	pushq	%rbp
	.cfi_def_cfa_offset 16
	.cfi_offset %rbp, -16
	movq	%rsp, %rbp
	.cfi_def_cfa_register %rbp
	pushq	%r15
	pushq	%r14
	pushq	%r13
	pushq	%r12
	pushq	%rbx
	subq	$136, %rsp
	.cfi_offset %rbx, -56
	.cfi_offset %r12, -48
	.cfi_offset %r13, -40
	.cfi_offset %r14, -32
	.cfi_offset %r15, -24
	movq	%r9, -48(%rbp)          # 8-byte Spill
	movq	%r8, %r15
	movq	%rcx, %r12
	movq	%rdx, %r13
	movq	%rsi, %rbx
	movq	%rdi, %r14
	movq	32(%rbp), %rax
	movq	24(%rbp), %rax
	movq	16(%rbp), %rax
	movl	$163, __profile__funcID
	callq	__profile__record_time_begin
	movq	%rax, -56(%rbp)         # 8-byte Spill
	movq	%r14, -104(%rbp)
	movq	%rbx, -96(%rbp)
	movq	%r13, -88(%rbp)
	movq	%r12, -80(%rbp)
	movq	%r15, -72(%rbp)
	movq	-48(%rbp), %rax         # 8-byte Reload
	movq	%rax, -64(%rbp)
	movq	-104(%rbp), %rdi
	movq	-96(%rbp), %rsi
	movq	-88(%rbp), %rdx
	movq	-80(%rbp), %rcx
	movq	-72(%rbp), %r8
	movq	-64(%rbp), %r9
	movq	16(%rbp), %rax
	movq	24(%rbp), %rbx
	movq	32(%rbp), %r10
	movq	%rax, (%rsp)
	movq	%rbx, 8(%rsp)
	movq	%r10, 16(%rsp)
	callq	mpi_gather_
	movabsq	$.L__unnamed_38, %rdi
	movq	-56(%rbp), %rsi         # 8-byte Reload
	callq	__profile__record_time_end
	addq	$136, %rsp
	popq	%rbx
	popq	%r12
	popq	%r13
	popq	%r14
	popq	%r15
	popq	%rbp
	.cfi_def_cfa %rsp, 8
	retq
.Lfunc_end37:
	.size	MPI_GATHER, .Lfunc_end37-MPI_GATHER
	.cfi_endproc
                                        # -- End function
	.globl	MPI_GATHER_             # -- Begin function MPI_GATHER_
	.p2align	4, 0x90
	.type	MPI_GATHER_,@function
MPI_GATHER_:                            # @MPI_GATHER_
	.cfi_startproc
# %bb.0:                                # %entry
	pushq	%rbp
	.cfi_def_cfa_offset 16
	.cfi_offset %rbp, -16
	movq	%rsp, %rbp
	.cfi_def_cfa_register %rbp
	pushq	%r15
	pushq	%r14
	pushq	%r13
	pushq	%r12
	pushq	%rbx
	subq	$136, %rsp
	.cfi_offset %rbx, -56
	.cfi_offset %r12, -48
	.cfi_offset %r13, -40
	.cfi_offset %r14, -32
	.cfi_offset %r15, -24
	movq	%r9, -48(%rbp)          # 8-byte Spill
	movq	%r8, %r15
	movq	%rcx, %r12
	movq	%rdx, %r13
	movq	%rsi, %rbx
	movq	%rdi, %r14
	movq	32(%rbp), %rax
	movq	24(%rbp), %rax
	movq	16(%rbp), %rax
	movl	$164, __profile__funcID
	callq	__profile__record_time_begin
	movq	%rax, -56(%rbp)         # 8-byte Spill
	movq	%r14, -104(%rbp)
	movq	%rbx, -96(%rbp)
	movq	%r13, -88(%rbp)
	movq	%r12, -80(%rbp)
	movq	%r15, -72(%rbp)
	movq	-48(%rbp), %rax         # 8-byte Reload
	movq	%rax, -64(%rbp)
	movq	-104(%rbp), %rdi
	movq	-96(%rbp), %rsi
	movq	-88(%rbp), %rdx
	movq	-80(%rbp), %rcx
	movq	-72(%rbp), %r8
	movq	-64(%rbp), %r9
	movq	16(%rbp), %rax
	movq	24(%rbp), %rbx
	movq	32(%rbp), %r10
	movq	%rax, (%rsp)
	movq	%rbx, 8(%rsp)
	movq	%r10, 16(%rsp)
	callq	mpi_gather_
	movabsq	$.L__unnamed_39, %rdi
	movq	-56(%rbp), %rsi         # 8-byte Reload
	callq	__profile__record_time_end
	addq	$136, %rsp
	popq	%rbx
	popq	%r12
	popq	%r13
	popq	%r14
	popq	%r15
	popq	%rbp
	.cfi_def_cfa %rsp, 8
	retq
.Lfunc_end38:
	.size	MPI_GATHER_, .Lfunc_end38-MPI_GATHER_
	.cfi_endproc
                                        # -- End function
	.globl	mpi_gather              # -- Begin function mpi_gather
	.p2align	4, 0x90
	.type	mpi_gather,@function
mpi_gather:                             # @mpi_gather
	.cfi_startproc
# %bb.0:                                # %entry
	pushq	%rbp
	.cfi_def_cfa_offset 16
	.cfi_offset %rbp, -16
	movq	%rsp, %rbp
	.cfi_def_cfa_register %rbp
	pushq	%r15
	pushq	%r14
	pushq	%r13
	pushq	%r12
	pushq	%rbx
	subq	$136, %rsp
	.cfi_offset %rbx, -56
	.cfi_offset %r12, -48
	.cfi_offset %r13, -40
	.cfi_offset %r14, -32
	.cfi_offset %r15, -24
	movq	%r9, -48(%rbp)          # 8-byte Spill
	movq	%r8, %r15
	movq	%rcx, %r12
	movq	%rdx, %r13
	movq	%rsi, %rbx
	movq	%rdi, %r14
	movq	32(%rbp), %rax
	movq	24(%rbp), %rax
	movq	16(%rbp), %rax
	movl	$165, __profile__funcID
	callq	__profile__record_time_begin
	movq	%rax, -56(%rbp)         # 8-byte Spill
	movq	%r14, -104(%rbp)
	movq	%rbx, -96(%rbp)
	movq	%r13, -88(%rbp)
	movq	%r12, -80(%rbp)
	movq	%r15, -72(%rbp)
	movq	-48(%rbp), %rax         # 8-byte Reload
	movq	%rax, -64(%rbp)
	movq	-104(%rbp), %rdi
	movq	-96(%rbp), %rsi
	movq	-88(%rbp), %rdx
	movq	-80(%rbp), %rcx
	movq	-72(%rbp), %r8
	movq	-64(%rbp), %r9
	movq	16(%rbp), %rax
	movq	24(%rbp), %rbx
	movq	32(%rbp), %r10
	movq	%rax, (%rsp)
	movq	%rbx, 8(%rsp)
	movq	%r10, 16(%rsp)
	callq	mpi_gather_
	movabsq	$.L__unnamed_40, %rdi
	movq	-56(%rbp), %rsi         # 8-byte Reload
	callq	__profile__record_time_end
	addq	$136, %rsp
	popq	%rbx
	popq	%r12
	popq	%r13
	popq	%r14
	popq	%r15
	popq	%rbp
	.cfi_def_cfa %rsp, 8
	retq
.Lfunc_end39:
	.size	mpi_gather, .Lfunc_end39-mpi_gather
	.cfi_endproc
                                        # -- End function
	.globl	mpi_gatherv_            # -- Begin function mpi_gatherv_
	.p2align	4, 0x90
	.type	mpi_gatherv_,@function
mpi_gatherv_:                           # @mpi_gatherv_
	.cfi_startproc
# %bb.0:                                # %entry
	pushq	%rbp
	.cfi_def_cfa_offset 16
	.cfi_offset %rbp, -16
	movq	%rsp, %rbp
	.cfi_def_cfa_register %rbp
	pushq	%r15
	pushq	%r14
	pushq	%r13
	pushq	%r12
	pushq	%rbx
	subq	$136, %rsp
	.cfi_offset %rbx, -56
	.cfi_offset %r12, -48
	.cfi_offset %r13, -40
	.cfi_offset %r14, -32
	.cfi_offset %r15, -24
	movq	%r9, -48(%rbp)          # 8-byte Spill
	movq	%r8, %r12
	movq	%rcx, %r13
	movq	%rdx, %rbx
	movq	%rsi, %r14
	movq	%rdi, %r15
	movq	40(%rbp), %rax
	movq	32(%rbp), %rax
	movq	24(%rbp), %rax
	movq	16(%rbp), %rax
	movl	$166, __profile__funcID
	callq	__profile__record_time_begin
	movq	%rax, -56(%rbp)         # 8-byte Spill
	movq	%r15, -104(%rbp)
	movq	%r14, -96(%rbp)
	movq	%rbx, -88(%rbp)
	movq	%r13, -80(%rbp)
	movq	%r12, -72(%rbp)
	movq	-48(%rbp), %rax         # 8-byte Reload
	movq	%rax, -64(%rbp)
	movq	-104(%rbp), %rdi
	movq	-96(%rbp), %rax
	movl	(%rax), %esi
	movq	-88(%rbp), %rax
	movl	(%rax), %edx
	movq	-80(%rbp), %rcx
	movq	-72(%rbp), %r8
	movq	-64(%rbp), %r9
	movq	16(%rbp), %rax
	movl	(%rax), %r10d
	movq	24(%rbp), %rbx
	movl	(%rbx), %ebx
	movq	32(%rbp), %rax
	movl	(%rax), %eax
	movl	%r10d, (%rsp)
	movl	%ebx, 8(%rsp)
	movl	%eax, 16(%rsp)
	callq	MPI_Gatherv
	movq	40(%rbp), %rcx
	movl	%eax, (%rcx)
	movabsq	$.L__unnamed_41, %rdi
	movq	-56(%rbp), %rsi         # 8-byte Reload
	callq	__profile__record_time_end
	addq	$136, %rsp
	popq	%rbx
	popq	%r12
	popq	%r13
	popq	%r14
	popq	%r15
	popq	%rbp
	.cfi_def_cfa %rsp, 8
	retq
.Lfunc_end40:
	.size	mpi_gatherv_, .Lfunc_end40-mpi_gatherv_
	.cfi_endproc
                                        # -- End function
	.globl	mpi_gatherv__           # -- Begin function mpi_gatherv__
	.p2align	4, 0x90
	.type	mpi_gatherv__,@function
mpi_gatherv__:                          # @mpi_gatherv__
	.cfi_startproc
# %bb.0:                                # %entry
	pushq	%rbp
	.cfi_def_cfa_offset 16
	.cfi_offset %rbp, -16
	movq	%rsp, %rbp
	.cfi_def_cfa_register %rbp
	pushq	%r15
	pushq	%r14
	pushq	%r13
	pushq	%r12
	pushq	%rbx
	subq	$136, %rsp
	.cfi_offset %rbx, -56
	.cfi_offset %r12, -48
	.cfi_offset %r13, -40
	.cfi_offset %r14, -32
	.cfi_offset %r15, -24
	movq	%r9, -48(%rbp)          # 8-byte Spill
	movq	%r8, %r15
	movq	%rcx, %r12
	movq	%rdx, %r13
	movq	%rsi, %rbx
	movq	%rdi, %r14
	movq	40(%rbp), %rax
	movq	32(%rbp), %rax
	movq	24(%rbp), %rax
	movq	16(%rbp), %rax
	movl	$167, __profile__funcID
	callq	__profile__record_time_begin
	movq	%rax, -56(%rbp)         # 8-byte Spill
	movq	%r14, -104(%rbp)
	movq	%rbx, -96(%rbp)
	movq	%r13, -88(%rbp)
	movq	%r12, -80(%rbp)
	movq	%r15, -72(%rbp)
	movq	-48(%rbp), %rax         # 8-byte Reload
	movq	%rax, -64(%rbp)
	movq	-104(%rbp), %rdi
	movq	-96(%rbp), %rsi
	movq	-88(%rbp), %rdx
	movq	-80(%rbp), %rcx
	movq	-72(%rbp), %r8
	movq	-64(%rbp), %r9
	movq	16(%rbp), %rax
	movq	24(%rbp), %rbx
	movq	32(%rbp), %r10
	movq	40(%rbp), %r11
	movq	%rax, (%rsp)
	movq	%rbx, 8(%rsp)
	movq	%r10, 16(%rsp)
	movq	%r11, 24(%rsp)
	callq	mpi_gatherv_
	movabsq	$.L__unnamed_42, %rdi
	movq	-56(%rbp), %rsi         # 8-byte Reload
	callq	__profile__record_time_end
	addq	$136, %rsp
	popq	%rbx
	popq	%r12
	popq	%r13
	popq	%r14
	popq	%r15
	popq	%rbp
	.cfi_def_cfa %rsp, 8
	retq
.Lfunc_end41:
	.size	mpi_gatherv__, .Lfunc_end41-mpi_gatherv__
	.cfi_endproc
                                        # -- End function
	.globl	MPI_GATHERV             # -- Begin function MPI_GATHERV
	.p2align	4, 0x90
	.type	MPI_GATHERV,@function
MPI_GATHERV:                            # @MPI_GATHERV
	.cfi_startproc
# %bb.0:                                # %entry
	pushq	%rbp
	.cfi_def_cfa_offset 16
	.cfi_offset %rbp, -16
	movq	%rsp, %rbp
	.cfi_def_cfa_register %rbp
	pushq	%r15
	pushq	%r14
	pushq	%r13
	pushq	%r12
	pushq	%rbx
	subq	$136, %rsp
	.cfi_offset %rbx, -56
	.cfi_offset %r12, -48
	.cfi_offset %r13, -40
	.cfi_offset %r14, -32
	.cfi_offset %r15, -24
	movq	%r9, -48(%rbp)          # 8-byte Spill
	movq	%r8, %r15
	movq	%rcx, %r12
	movq	%rdx, %r13
	movq	%rsi, %rbx
	movq	%rdi, %r14
	movq	40(%rbp), %rax
	movq	32(%rbp), %rax
	movq	24(%rbp), %rax
	movq	16(%rbp), %rax
	movl	$168, __profile__funcID
	callq	__profile__record_time_begin
	movq	%rax, -56(%rbp)         # 8-byte Spill
	movq	%r14, -104(%rbp)
	movq	%rbx, -96(%rbp)
	movq	%r13, -88(%rbp)
	movq	%r12, -80(%rbp)
	movq	%r15, -72(%rbp)
	movq	-48(%rbp), %rax         # 8-byte Reload
	movq	%rax, -64(%rbp)
	movq	-104(%rbp), %rdi
	movq	-96(%rbp), %rsi
	movq	-88(%rbp), %rdx
	movq	-80(%rbp), %rcx
	movq	-72(%rbp), %r8
	movq	-64(%rbp), %r9
	movq	16(%rbp), %rax
	movq	24(%rbp), %rbx
	movq	32(%rbp), %r10
	movq	40(%rbp), %r11
	movq	%rax, (%rsp)
	movq	%rbx, 8(%rsp)
	movq	%r10, 16(%rsp)
	movq	%r11, 24(%rsp)
	callq	mpi_gatherv_
	movabsq	$.L__unnamed_43, %rdi
	movq	-56(%rbp), %rsi         # 8-byte Reload
	callq	__profile__record_time_end
	addq	$136, %rsp
	popq	%rbx
	popq	%r12
	popq	%r13
	popq	%r14
	popq	%r15
	popq	%rbp
	.cfi_def_cfa %rsp, 8
	retq
.Lfunc_end42:
	.size	MPI_GATHERV, .Lfunc_end42-MPI_GATHERV
	.cfi_endproc
                                        # -- End function
	.globl	MPI_GATHERV_            # -- Begin function MPI_GATHERV_
	.p2align	4, 0x90
	.type	MPI_GATHERV_,@function
MPI_GATHERV_:                           # @MPI_GATHERV_
	.cfi_startproc
# %bb.0:                                # %entry
	pushq	%rbp
	.cfi_def_cfa_offset 16
	.cfi_offset %rbp, -16
	movq	%rsp, %rbp
	.cfi_def_cfa_register %rbp
	pushq	%r15
	pushq	%r14
	pushq	%r13
	pushq	%r12
	pushq	%rbx
	subq	$136, %rsp
	.cfi_offset %rbx, -56
	.cfi_offset %r12, -48
	.cfi_offset %r13, -40
	.cfi_offset %r14, -32
	.cfi_offset %r15, -24
	movq	%r9, -48(%rbp)          # 8-byte Spill
	movq	%r8, %r15
	movq	%rcx, %r12
	movq	%rdx, %r13
	movq	%rsi, %rbx
	movq	%rdi, %r14
	movq	40(%rbp), %rax
	movq	32(%rbp), %rax
	movq	24(%rbp), %rax
	movq	16(%rbp), %rax
	movl	$169, __profile__funcID
	callq	__profile__record_time_begin
	movq	%rax, -56(%rbp)         # 8-byte Spill
	movq	%r14, -104(%rbp)
	movq	%rbx, -96(%rbp)
	movq	%r13, -88(%rbp)
	movq	%r12, -80(%rbp)
	movq	%r15, -72(%rbp)
	movq	-48(%rbp), %rax         # 8-byte Reload
	movq	%rax, -64(%rbp)
	movq	-104(%rbp), %rdi
	movq	-96(%rbp), %rsi
	movq	-88(%rbp), %rdx
	movq	-80(%rbp), %rcx
	movq	-72(%rbp), %r8
	movq	-64(%rbp), %r9
	movq	16(%rbp), %rax
	movq	24(%rbp), %rbx
	movq	32(%rbp), %r10
	movq	40(%rbp), %r11
	movq	%rax, (%rsp)
	movq	%rbx, 8(%rsp)
	movq	%r10, 16(%rsp)
	movq	%r11, 24(%rsp)
	callq	mpi_gatherv_
	movabsq	$.L__unnamed_44, %rdi
	movq	-56(%rbp), %rsi         # 8-byte Reload
	callq	__profile__record_time_end
	addq	$136, %rsp
	popq	%rbx
	popq	%r12
	popq	%r13
	popq	%r14
	popq	%r15
	popq	%rbp
	.cfi_def_cfa %rsp, 8
	retq
.Lfunc_end43:
	.size	MPI_GATHERV_, .Lfunc_end43-MPI_GATHERV_
	.cfi_endproc
                                        # -- End function
	.globl	mpi_gatherv             # -- Begin function mpi_gatherv
	.p2align	4, 0x90
	.type	mpi_gatherv,@function
mpi_gatherv:                            # @mpi_gatherv
	.cfi_startproc
# %bb.0:                                # %entry
	pushq	%rbp
	.cfi_def_cfa_offset 16
	.cfi_offset %rbp, -16
	movq	%rsp, %rbp
	.cfi_def_cfa_register %rbp
	pushq	%r15
	pushq	%r14
	pushq	%r13
	pushq	%r12
	pushq	%rbx
	subq	$136, %rsp
	.cfi_offset %rbx, -56
	.cfi_offset %r12, -48
	.cfi_offset %r13, -40
	.cfi_offset %r14, -32
	.cfi_offset %r15, -24
	movq	%r9, -48(%rbp)          # 8-byte Spill
	movq	%r8, %r15
	movq	%rcx, %r12
	movq	%rdx, %r13
	movq	%rsi, %rbx
	movq	%rdi, %r14
	movq	40(%rbp), %rax
	movq	32(%rbp), %rax
	movq	24(%rbp), %rax
	movq	16(%rbp), %rax
	movl	$170, __profile__funcID
	callq	__profile__record_time_begin
	movq	%rax, -56(%rbp)         # 8-byte Spill
	movq	%r14, -104(%rbp)
	movq	%rbx, -96(%rbp)
	movq	%r13, -88(%rbp)
	movq	%r12, -80(%rbp)
	movq	%r15, -72(%rbp)
	movq	-48(%rbp), %rax         # 8-byte Reload
	movq	%rax, -64(%rbp)
	movq	-104(%rbp), %rdi
	movq	-96(%rbp), %rsi
	movq	-88(%rbp), %rdx
	movq	-80(%rbp), %rcx
	movq	-72(%rbp), %r8
	movq	-64(%rbp), %r9
	movq	16(%rbp), %rax
	movq	24(%rbp), %rbx
	movq	32(%rbp), %r10
	movq	40(%rbp), %r11
	movq	%rax, (%rsp)
	movq	%rbx, 8(%rsp)
	movq	%r10, 16(%rsp)
	movq	%r11, 24(%rsp)
	callq	mpi_gatherv_
	movabsq	$.L__unnamed_45, %rdi
	movq	-56(%rbp), %rsi         # 8-byte Reload
	callq	__profile__record_time_end
	addq	$136, %rsp
	popq	%rbx
	popq	%r12
	popq	%r13
	popq	%r14
	popq	%r15
	popq	%rbp
	.cfi_def_cfa %rsp, 8
	retq
.Lfunc_end44:
	.size	mpi_gatherv, .Lfunc_end44-mpi_gatherv
	.cfi_endproc
                                        # -- End function
	.globl	mpi_op_create_          # -- Begin function mpi_op_create_
	.p2align	4, 0x90
	.type	mpi_op_create_,@function
mpi_op_create_:                         # @mpi_op_create_
	.cfi_startproc
# %bb.0:                                # %entry
	pushq	%rbp
	.cfi_def_cfa_offset 16
	.cfi_offset %rbp, -16
	movq	%rsp, %rbp
	.cfi_def_cfa_register %rbp
	pushq	%r15
	pushq	%r14
	pushq	%r13
	pushq	%r12
	pushq	%rbx
	subq	$88, %rsp
	.cfi_offset %rbx, -56
	.cfi_offset %r12, -48
	.cfi_offset %r13, -40
	.cfi_offset %r14, -32
	.cfi_offset %r15, -24
	movq	%rcx, %r14
	movq	%rdx, %r15
	movq	%rsi, %r12
	movq	%rdi, %rbx
	movl	$171, __profile__funcID
	callq	__profile__record_time_begin
	movq	%rax, %r13
	movq	%rbx, -80(%rbp)
	movq	%r12, -72(%rbp)
	movq	%r15, -64(%rbp)
	movq	%r14, -56(%rbp)
	movq	-80(%rbp), %rdi
	movq	-72(%rbp), %rax
	movl	(%rax), %esi
	leaq	-44(%rbp), %rdx
	callq	MPI_Op_create
	movq	-56(%rbp), %rcx
	movl	%eax, (%rcx)
	movl	-44(%rbp), %eax
	movq	-64(%rbp), %rcx
	movl	%eax, (%rcx)
	movabsq	$.L__unnamed_46, %rdi
	movq	%r13, %rsi
	callq	__profile__record_time_end
	addq	$88, %rsp
	popq	%rbx
	popq	%r12
	popq	%r13
	popq	%r14
	popq	%r15
	popq	%rbp
	.cfi_def_cfa %rsp, 8
	retq
.Lfunc_end45:
	.size	mpi_op_create_, .Lfunc_end45-mpi_op_create_
	.cfi_endproc
                                        # -- End function
	.globl	mpi_op_create__         # -- Begin function mpi_op_create__
	.p2align	4, 0x90
	.type	mpi_op_create__,@function
mpi_op_create__:                        # @mpi_op_create__
	.cfi_startproc
# %bb.0:                                # %entry
	pushq	%rbp
	.cfi_def_cfa_offset 16
	.cfi_offset %rbp, -16
	movq	%rsp, %rbp
	.cfi_def_cfa_register %rbp
	pushq	%r15
	pushq	%r14
	pushq	%r13
	pushq	%r12
	pushq	%rbx
	subq	$72, %rsp
	.cfi_offset %rbx, -56
	.cfi_offset %r12, -48
	.cfi_offset %r13, -40
	.cfi_offset %r14, -32
	.cfi_offset %r15, -24
	movq	%rcx, %r14
	movq	%rdx, %r15
	movq	%rsi, %r12
	movq	%rdi, %rbx
	movl	$172, __profile__funcID
	callq	__profile__record_time_begin
	movq	%rax, %r13
	movq	%rbx, -72(%rbp)
	movq	%r12, -64(%rbp)
	movq	%r15, -56(%rbp)
	movq	%r14, -48(%rbp)
	movq	-72(%rbp), %rdi
	movq	-64(%rbp), %rsi
	movq	-56(%rbp), %rdx
	movq	-48(%rbp), %rcx
	callq	mpi_op_create_
	movabsq	$.L__unnamed_47, %rdi
	movq	%r13, %rsi
	callq	__profile__record_time_end
	addq	$72, %rsp
	popq	%rbx
	popq	%r12
	popq	%r13
	popq	%r14
	popq	%r15
	popq	%rbp
	.cfi_def_cfa %rsp, 8
	retq
.Lfunc_end46:
	.size	mpi_op_create__, .Lfunc_end46-mpi_op_create__
	.cfi_endproc
                                        # -- End function
	.globl	MPI_OP_CREATE           # -- Begin function MPI_OP_CREATE
	.p2align	4, 0x90
	.type	MPI_OP_CREATE,@function
MPI_OP_CREATE:                          # @MPI_OP_CREATE
	.cfi_startproc
# %bb.0:                                # %entry
	pushq	%rbp
	.cfi_def_cfa_offset 16
	.cfi_offset %rbp, -16
	movq	%rsp, %rbp
	.cfi_def_cfa_register %rbp
	pushq	%r15
	pushq	%r14
	pushq	%r13
	pushq	%r12
	pushq	%rbx
	subq	$72, %rsp
	.cfi_offset %rbx, -56
	.cfi_offset %r12, -48
	.cfi_offset %r13, -40
	.cfi_offset %r14, -32
	.cfi_offset %r15, -24
	movq	%rcx, %r14
	movq	%rdx, %r15
	movq	%rsi, %r12
	movq	%rdi, %rbx
	movl	$173, __profile__funcID
	callq	__profile__record_time_begin
	movq	%rax, %r13
	movq	%rbx, -72(%rbp)
	movq	%r12, -64(%rbp)
	movq	%r15, -56(%rbp)
	movq	%r14, -48(%rbp)
	movq	-72(%rbp), %rdi
	movq	-64(%rbp), %rsi
	movq	-56(%rbp), %rdx
	movq	-48(%rbp), %rcx
	callq	mpi_op_create_
	movabsq	$.L__unnamed_48, %rdi
	movq	%r13, %rsi
	callq	__profile__record_time_end
	addq	$72, %rsp
	popq	%rbx
	popq	%r12
	popq	%r13
	popq	%r14
	popq	%r15
	popq	%rbp
	.cfi_def_cfa %rsp, 8
	retq
.Lfunc_end47:
	.size	MPI_OP_CREATE, .Lfunc_end47-MPI_OP_CREATE
	.cfi_endproc
                                        # -- End function
	.globl	MPI_OP_CREATE_          # -- Begin function MPI_OP_CREATE_
	.p2align	4, 0x90
	.type	MPI_OP_CREATE_,@function
MPI_OP_CREATE_:                         # @MPI_OP_CREATE_
	.cfi_startproc
# %bb.0:                                # %entry
	pushq	%rbp
	.cfi_def_cfa_offset 16
	.cfi_offset %rbp, -16
	movq	%rsp, %rbp
	.cfi_def_cfa_register %rbp
	pushq	%r15
	pushq	%r14
	pushq	%r13
	pushq	%r12
	pushq	%rbx
	subq	$72, %rsp
	.cfi_offset %rbx, -56
	.cfi_offset %r12, -48
	.cfi_offset %r13, -40
	.cfi_offset %r14, -32
	.cfi_offset %r15, -24
	movq	%rcx, %r14
	movq	%rdx, %r15
	movq	%rsi, %r12
	movq	%rdi, %rbx
	movl	$174, __profile__funcID
	callq	__profile__record_time_begin
	movq	%rax, %r13
	movq	%rbx, -72(%rbp)
	movq	%r12, -64(%rbp)
	movq	%r15, -56(%rbp)
	movq	%r14, -48(%rbp)
	movq	-72(%rbp), %rdi
	movq	-64(%rbp), %rsi
	movq	-56(%rbp), %rdx
	movq	-48(%rbp), %rcx
	callq	mpi_op_create_
	movabsq	$.L__unnamed_49, %rdi
	movq	%r13, %rsi
	callq	__profile__record_time_end
	addq	$72, %rsp
	popq	%rbx
	popq	%r12
	popq	%r13
	popq	%r14
	popq	%r15
	popq	%rbp
	.cfi_def_cfa %rsp, 8
	retq
.Lfunc_end48:
	.size	MPI_OP_CREATE_, .Lfunc_end48-MPI_OP_CREATE_
	.cfi_endproc
                                        # -- End function
	.globl	mpi_op_create           # -- Begin function mpi_op_create
	.p2align	4, 0x90
	.type	mpi_op_create,@function
mpi_op_create:                          # @mpi_op_create
	.cfi_startproc
# %bb.0:                                # %entry
	pushq	%rbp
	.cfi_def_cfa_offset 16
	.cfi_offset %rbp, -16
	movq	%rsp, %rbp
	.cfi_def_cfa_register %rbp
	pushq	%r15
	pushq	%r14
	pushq	%r13
	pushq	%r12
	pushq	%rbx
	subq	$72, %rsp
	.cfi_offset %rbx, -56
	.cfi_offset %r12, -48
	.cfi_offset %r13, -40
	.cfi_offset %r14, -32
	.cfi_offset %r15, -24
	movq	%rcx, %r14
	movq	%rdx, %r15
	movq	%rsi, %r12
	movq	%rdi, %rbx
	movl	$175, __profile__funcID
	callq	__profile__record_time_begin
	movq	%rax, %r13
	movq	%rbx, -72(%rbp)
	movq	%r12, -64(%rbp)
	movq	%r15, -56(%rbp)
	movq	%r14, -48(%rbp)
	movq	-72(%rbp), %rdi
	movq	-64(%rbp), %rsi
	movq	-56(%rbp), %rdx
	movq	-48(%rbp), %rcx
	callq	mpi_op_create_
	movabsq	$.L__unnamed_50, %rdi
	movq	%r13, %rsi
	callq	__profile__record_time_end
	addq	$72, %rsp
	popq	%rbx
	popq	%r12
	popq	%r13
	popq	%r14
	popq	%r15
	popq	%rbp
	.cfi_def_cfa %rsp, 8
	retq
.Lfunc_end49:
	.size	mpi_op_create, .Lfunc_end49-mpi_op_create
	.cfi_endproc
                                        # -- End function
	.globl	mpi_op_free_            # -- Begin function mpi_op_free_
	.p2align	4, 0x90
	.type	mpi_op_free_,@function
mpi_op_free_:                           # @mpi_op_free_
	.cfi_startproc
# %bb.0:                                # %entry
	pushq	%rbp
	.cfi_def_cfa_offset 16
	.cfi_offset %rbp, -16
	movq	%rsp, %rbp
	.cfi_def_cfa_register %rbp
	pushq	%r15
	pushq	%r14
	pushq	%rbx
	subq	$72, %rsp
	.cfi_offset %rbx, -40
	.cfi_offset %r14, -32
	.cfi_offset %r15, -24
	movq	%rsi, %r14
	movq	%rdi, %rbx
	movl	$176, __profile__funcID
	callq	__profile__record_time_begin
	movq	%rax, %r15
	movq	%rbx, -40(%rbp)
	movq	%r14, -48(%rbp)
	movq	-40(%rbp), %rax
	movl	(%rax), %eax
	movl	%eax, -28(%rbp)
	leaq	-28(%rbp), %rdi
	callq	MPI_Op_free
	movq	-48(%rbp), %rcx
	movl	%eax, (%rcx)
	movl	-28(%rbp), %eax
	movq	-40(%rbp), %rcx
	movl	%eax, (%rcx)
	movabsq	$.L__unnamed_51, %rdi
	movq	%r15, %rsi
	callq	__profile__record_time_end
	addq	$72, %rsp
	popq	%rbx
	popq	%r14
	popq	%r15
	popq	%rbp
	.cfi_def_cfa %rsp, 8
	retq
.Lfunc_end50:
	.size	mpi_op_free_, .Lfunc_end50-mpi_op_free_
	.cfi_endproc
                                        # -- End function
	.globl	mpi_op_free__           # -- Begin function mpi_op_free__
	.p2align	4, 0x90
	.type	mpi_op_free__,@function
mpi_op_free__:                          # @mpi_op_free__
	.cfi_startproc
# %bb.0:                                # %entry
	pushq	%rbp
	.cfi_def_cfa_offset 16
	.cfi_offset %rbp, -16
	movq	%rsp, %rbp
	.cfi_def_cfa_register %rbp
	pushq	%r15
	pushq	%r14
	pushq	%rbx
	subq	$56, %rsp
	.cfi_offset %rbx, -40
	.cfi_offset %r14, -32
	.cfi_offset %r15, -24
	movq	%rsi, %r14
	movq	%rdi, %rbx
	movl	$177, __profile__funcID
	callq	__profile__record_time_begin
	movq	%rax, %r15
	movq	%rbx, -40(%rbp)
	movq	%r14, -32(%rbp)
	movq	-40(%rbp), %rdi
	movq	-32(%rbp), %rsi
	callq	mpi_op_free_
	movabsq	$.L__unnamed_52, %rdi
	movq	%r15, %rsi
	callq	__profile__record_time_end
	addq	$56, %rsp
	popq	%rbx
	popq	%r14
	popq	%r15
	popq	%rbp
	.cfi_def_cfa %rsp, 8
	retq
.Lfunc_end51:
	.size	mpi_op_free__, .Lfunc_end51-mpi_op_free__
	.cfi_endproc
                                        # -- End function
	.globl	MPI_OP_FREE             # -- Begin function MPI_OP_FREE
	.p2align	4, 0x90
	.type	MPI_OP_FREE,@function
MPI_OP_FREE:                            # @MPI_OP_FREE
	.cfi_startproc
# %bb.0:                                # %entry
	pushq	%rbp
	.cfi_def_cfa_offset 16
	.cfi_offset %rbp, -16
	movq	%rsp, %rbp
	.cfi_def_cfa_register %rbp
	pushq	%r15
	pushq	%r14
	pushq	%rbx
	subq	$56, %rsp
	.cfi_offset %rbx, -40
	.cfi_offset %r14, -32
	.cfi_offset %r15, -24
	movq	%rsi, %r14
	movq	%rdi, %rbx
	movl	$178, __profile__funcID
	callq	__profile__record_time_begin
	movq	%rax, %r15
	movq	%rbx, -40(%rbp)
	movq	%r14, -32(%rbp)
	movq	-40(%rbp), %rdi
	movq	-32(%rbp), %rsi
	callq	mpi_op_free_
	movabsq	$.L__unnamed_53, %rdi
	movq	%r15, %rsi
	callq	__profile__record_time_end
	addq	$56, %rsp
	popq	%rbx
	popq	%r14
	popq	%r15
	popq	%rbp
	.cfi_def_cfa %rsp, 8
	retq
.Lfunc_end52:
	.size	MPI_OP_FREE, .Lfunc_end52-MPI_OP_FREE
	.cfi_endproc
                                        # -- End function
	.globl	MPI_OP_FREE_            # -- Begin function MPI_OP_FREE_
	.p2align	4, 0x90
	.type	MPI_OP_FREE_,@function
MPI_OP_FREE_:                           # @MPI_OP_FREE_
	.cfi_startproc
# %bb.0:                                # %entry
	pushq	%rbp
	.cfi_def_cfa_offset 16
	.cfi_offset %rbp, -16
	movq	%rsp, %rbp
	.cfi_def_cfa_register %rbp
	pushq	%r15
	pushq	%r14
	pushq	%rbx
	subq	$56, %rsp
	.cfi_offset %rbx, -40
	.cfi_offset %r14, -32
	.cfi_offset %r15, -24
	movq	%rsi, %r14
	movq	%rdi, %rbx
	movl	$179, __profile__funcID
	callq	__profile__record_time_begin
	movq	%rax, %r15
	movq	%rbx, -40(%rbp)
	movq	%r14, -32(%rbp)
	movq	-40(%rbp), %rdi
	movq	-32(%rbp), %rsi
	callq	mpi_op_free_
	movabsq	$.L__unnamed_54, %rdi
	movq	%r15, %rsi
	callq	__profile__record_time_end
	addq	$56, %rsp
	popq	%rbx
	popq	%r14
	popq	%r15
	popq	%rbp
	.cfi_def_cfa %rsp, 8
	retq
.Lfunc_end53:
	.size	MPI_OP_FREE_, .Lfunc_end53-MPI_OP_FREE_
	.cfi_endproc
                                        # -- End function
	.globl	mpi_op_free             # -- Begin function mpi_op_free
	.p2align	4, 0x90
	.type	mpi_op_free,@function
mpi_op_free:                            # @mpi_op_free
	.cfi_startproc
# %bb.0:                                # %entry
	pushq	%rbp
	.cfi_def_cfa_offset 16
	.cfi_offset %rbp, -16
	movq	%rsp, %rbp
	.cfi_def_cfa_register %rbp
	pushq	%r15
	pushq	%r14
	pushq	%rbx
	subq	$56, %rsp
	.cfi_offset %rbx, -40
	.cfi_offset %r14, -32
	.cfi_offset %r15, -24
	movq	%rsi, %r14
	movq	%rdi, %rbx
	movl	$180, __profile__funcID
	callq	__profile__record_time_begin
	movq	%rax, %r15
	movq	%rbx, -40(%rbp)
	movq	%r14, -32(%rbp)
	movq	-40(%rbp), %rdi
	movq	-32(%rbp), %rsi
	callq	mpi_op_free_
	movabsq	$.L__unnamed_55, %rdi
	movq	%r15, %rsi
	callq	__profile__record_time_end
	addq	$56, %rsp
	popq	%rbx
	popq	%r14
	popq	%r15
	popq	%rbp
	.cfi_def_cfa %rsp, 8
	retq
.Lfunc_end54:
	.size	mpi_op_free, .Lfunc_end54-mpi_op_free
	.cfi_endproc
                                        # -- End function
	.globl	mpi_reduce_scatter_     # -- Begin function mpi_reduce_scatter_
	.p2align	4, 0x90
	.type	mpi_reduce_scatter_,@function
mpi_reduce_scatter_:                    # @mpi_reduce_scatter_
	.cfi_startproc
# %bb.0:                                # %entry
	pushq	%rbp
	.cfi_def_cfa_offset 16
	.cfi_offset %rbp, -16
	movq	%rsp, %rbp
	.cfi_def_cfa_register %rbp
	pushq	%r15
	pushq	%r14
	pushq	%r13
	pushq	%r12
	pushq	%rbx
	subq	$104, %rsp
	.cfi_offset %rbx, -56
	.cfi_offset %r12, -48
	.cfi_offset %r13, -40
	.cfi_offset %r14, -32
	.cfi_offset %r15, -24
	movq	%r9, -48(%rbp)          # 8-byte Spill
	movq	%r8, %r15
	movq	%rcx, %r12
	movq	%rdx, %r13
	movq	%rsi, %rbx
	movq	%rdi, %r14
	movq	16(%rbp), %rax
	movl	$181, __profile__funcID
	callq	__profile__record_time_begin
	movq	%rax, -56(%rbp)         # 8-byte Spill
	movq	%r14, -104(%rbp)
	movq	%rbx, -96(%rbp)
	movq	%r13, -88(%rbp)
	movq	%r12, -80(%rbp)
	movq	%r15, -72(%rbp)
	movq	-48(%rbp), %rax         # 8-byte Reload
	movq	%rax, -64(%rbp)
	movq	-104(%rbp), %rdi
	movq	-96(%rbp), %rsi
	movq	-88(%rbp), %rdx
	movq	-80(%rbp), %rax
	movl	(%rax), %ecx
	movq	-72(%rbp), %rax
	movl	(%rax), %r8d
	movq	-64(%rbp), %rax
	movl	(%rax), %r9d
	callq	MPI_Reduce_scatter
	movq	16(%rbp), %rcx
	movl	%eax, (%rcx)
	movabsq	$.L__unnamed_56, %rdi
	movq	-56(%rbp), %rsi         # 8-byte Reload
	callq	__profile__record_time_end
	addq	$104, %rsp
	popq	%rbx
	popq	%r12
	popq	%r13
	popq	%r14
	popq	%r15
	popq	%rbp
	.cfi_def_cfa %rsp, 8
	retq
.Lfunc_end55:
	.size	mpi_reduce_scatter_, .Lfunc_end55-mpi_reduce_scatter_
	.cfi_endproc
                                        # -- End function
	.globl	mpi_reduce_scatter__    # -- Begin function mpi_reduce_scatter__
	.p2align	4, 0x90
	.type	mpi_reduce_scatter__,@function
mpi_reduce_scatter__:                   # @mpi_reduce_scatter__
	.cfi_startproc
# %bb.0:                                # %entry
	pushq	%rbp
	.cfi_def_cfa_offset 16
	.cfi_offset %rbp, -16
	movq	%rsp, %rbp
	.cfi_def_cfa_register %rbp
	pushq	%r15
	pushq	%r14
	pushq	%r13
	pushq	%r12
	pushq	%rbx
	subq	$120, %rsp
	.cfi_offset %rbx, -56
	.cfi_offset %r12, -48
	.cfi_offset %r13, -40
	.cfi_offset %r14, -32
	.cfi_offset %r15, -24
	movq	%r9, -48(%rbp)          # 8-byte Spill
	movq	%r8, %r15
	movq	%rcx, %r12
	movq	%rdx, %r13
	movq	%rsi, %rbx
	movq	%rdi, %r14
	movq	16(%rbp), %rax
	movl	$182, __profile__funcID
	callq	__profile__record_time_begin
	movq	%rax, -56(%rbp)         # 8-byte Spill
	movq	%r14, -104(%rbp)
	movq	%rbx, -96(%rbp)
	movq	%r13, -88(%rbp)
	movq	%r12, -80(%rbp)
	movq	%r15, -72(%rbp)
	movq	-48(%rbp), %rax         # 8-byte Reload
	movq	%rax, -64(%rbp)
	movq	-104(%rbp), %rdi
	movq	-96(%rbp), %rsi
	movq	-88(%rbp), %rdx
	movq	-80(%rbp), %rcx
	movq	-72(%rbp), %r8
	movq	-64(%rbp), %r9
	movq	16(%rbp), %rax
	movq	%rax, (%rsp)
	callq	mpi_reduce_scatter_
	movabsq	$.L__unnamed_57, %rdi
	movq	-56(%rbp), %rsi         # 8-byte Reload
	callq	__profile__record_time_end
	addq	$120, %rsp
	popq	%rbx
	popq	%r12
	popq	%r13
	popq	%r14
	popq	%r15
	popq	%rbp
	.cfi_def_cfa %rsp, 8
	retq
.Lfunc_end56:
	.size	mpi_reduce_scatter__, .Lfunc_end56-mpi_reduce_scatter__
	.cfi_endproc
                                        # -- End function
	.globl	MPI_REDUCE_SCATTER      # -- Begin function MPI_REDUCE_SCATTER
	.p2align	4, 0x90
	.type	MPI_REDUCE_SCATTER,@function
MPI_REDUCE_SCATTER:                     # @MPI_REDUCE_SCATTER
	.cfi_startproc
# %bb.0:                                # %entry
	pushq	%rbp
	.cfi_def_cfa_offset 16
	.cfi_offset %rbp, -16
	movq	%rsp, %rbp
	.cfi_def_cfa_register %rbp
	pushq	%r15
	pushq	%r14
	pushq	%r13
	pushq	%r12
	pushq	%rbx
	subq	$120, %rsp
	.cfi_offset %rbx, -56
	.cfi_offset %r12, -48
	.cfi_offset %r13, -40
	.cfi_offset %r14, -32
	.cfi_offset %r15, -24
	movq	%r9, -48(%rbp)          # 8-byte Spill
	movq	%r8, %r15
	movq	%rcx, %r12
	movq	%rdx, %r13
	movq	%rsi, %rbx
	movq	%rdi, %r14
	movq	16(%rbp), %rax
	movl	$183, __profile__funcID
	callq	__profile__record_time_begin
	movq	%rax, -56(%rbp)         # 8-byte Spill
	movq	%r14, -104(%rbp)
	movq	%rbx, -96(%rbp)
	movq	%r13, -88(%rbp)
	movq	%r12, -80(%rbp)
	movq	%r15, -72(%rbp)
	movq	-48(%rbp), %rax         # 8-byte Reload
	movq	%rax, -64(%rbp)
	movq	-104(%rbp), %rdi
	movq	-96(%rbp), %rsi
	movq	-88(%rbp), %rdx
	movq	-80(%rbp), %rcx
	movq	-72(%rbp), %r8
	movq	-64(%rbp), %r9
	movq	16(%rbp), %rax
	movq	%rax, (%rsp)
	callq	mpi_reduce_scatter_
	movabsq	$.L__unnamed_58, %rdi
	movq	-56(%rbp), %rsi         # 8-byte Reload
	callq	__profile__record_time_end
	addq	$120, %rsp
	popq	%rbx
	popq	%r12
	popq	%r13
	popq	%r14
	popq	%r15
	popq	%rbp
	.cfi_def_cfa %rsp, 8
	retq
.Lfunc_end57:
	.size	MPI_REDUCE_SCATTER, .Lfunc_end57-MPI_REDUCE_SCATTER
	.cfi_endproc
                                        # -- End function
	.globl	MPI_REDUCE_SCATTER_     # -- Begin function MPI_REDUCE_SCATTER_
	.p2align	4, 0x90
	.type	MPI_REDUCE_SCATTER_,@function
MPI_REDUCE_SCATTER_:                    # @MPI_REDUCE_SCATTER_
	.cfi_startproc
# %bb.0:                                # %entry
	pushq	%rbp
	.cfi_def_cfa_offset 16
	.cfi_offset %rbp, -16
	movq	%rsp, %rbp
	.cfi_def_cfa_register %rbp
	pushq	%r15
	pushq	%r14
	pushq	%r13
	pushq	%r12
	pushq	%rbx
	subq	$120, %rsp
	.cfi_offset %rbx, -56
	.cfi_offset %r12, -48
	.cfi_offset %r13, -40
	.cfi_offset %r14, -32
	.cfi_offset %r15, -24
	movq	%r9, -48(%rbp)          # 8-byte Spill
	movq	%r8, %r15
	movq	%rcx, %r12
	movq	%rdx, %r13
	movq	%rsi, %rbx
	movq	%rdi, %r14
	movq	16(%rbp), %rax
	movl	$184, __profile__funcID
	callq	__profile__record_time_begin
	movq	%rax, -56(%rbp)         # 8-byte Spill
	movq	%r14, -104(%rbp)
	movq	%rbx, -96(%rbp)
	movq	%r13, -88(%rbp)
	movq	%r12, -80(%rbp)
	movq	%r15, -72(%rbp)
	movq	-48(%rbp), %rax         # 8-byte Reload
	movq	%rax, -64(%rbp)
	movq	-104(%rbp), %rdi
	movq	-96(%rbp), %rsi
	movq	-88(%rbp), %rdx
	movq	-80(%rbp), %rcx
	movq	-72(%rbp), %r8
	movq	-64(%rbp), %r9
	movq	16(%rbp), %rax
	movq	%rax, (%rsp)
	callq	mpi_reduce_scatter_
	movabsq	$.L__unnamed_59, %rdi
	movq	-56(%rbp), %rsi         # 8-byte Reload
	callq	__profile__record_time_end
	addq	$120, %rsp
	popq	%rbx
	popq	%r12
	popq	%r13
	popq	%r14
	popq	%r15
	popq	%rbp
	.cfi_def_cfa %rsp, 8
	retq
.Lfunc_end58:
	.size	MPI_REDUCE_SCATTER_, .Lfunc_end58-MPI_REDUCE_SCATTER_
	.cfi_endproc
                                        # -- End function
	.globl	mpi_reduce_scatter      # -- Begin function mpi_reduce_scatter
	.p2align	4, 0x90
	.type	mpi_reduce_scatter,@function
mpi_reduce_scatter:                     # @mpi_reduce_scatter
	.cfi_startproc
# %bb.0:                                # %entry
	pushq	%rbp
	.cfi_def_cfa_offset 16
	.cfi_offset %rbp, -16
	movq	%rsp, %rbp
	.cfi_def_cfa_register %rbp
	pushq	%r15
	pushq	%r14
	pushq	%r13
	pushq	%r12
	pushq	%rbx
	subq	$120, %rsp
	.cfi_offset %rbx, -56
	.cfi_offset %r12, -48
	.cfi_offset %r13, -40
	.cfi_offset %r14, -32
	.cfi_offset %r15, -24
	movq	%r9, -48(%rbp)          # 8-byte Spill
	movq	%r8, %r15
	movq	%rcx, %r12
	movq	%rdx, %r13
	movq	%rsi, %rbx
	movq	%rdi, %r14
	movq	16(%rbp), %rax
	movl	$185, __profile__funcID
	callq	__profile__record_time_begin
	movq	%rax, -56(%rbp)         # 8-byte Spill
	movq	%r14, -104(%rbp)
	movq	%rbx, -96(%rbp)
	movq	%r13, -88(%rbp)
	movq	%r12, -80(%rbp)
	movq	%r15, -72(%rbp)
	movq	-48(%rbp), %rax         # 8-byte Reload
	movq	%rax, -64(%rbp)
	movq	-104(%rbp), %rdi
	movq	-96(%rbp), %rsi
	movq	-88(%rbp), %rdx
	movq	-80(%rbp), %rcx
	movq	-72(%rbp), %r8
	movq	-64(%rbp), %r9
	movq	16(%rbp), %rax
	movq	%rax, (%rsp)
	callq	mpi_reduce_scatter_
	movabsq	$.L__unnamed_60, %rdi
	movq	-56(%rbp), %rsi         # 8-byte Reload
	callq	__profile__record_time_end
	addq	$120, %rsp
	popq	%rbx
	popq	%r12
	popq	%r13
	popq	%r14
	popq	%r15
	popq	%rbp
	.cfi_def_cfa %rsp, 8
	retq
.Lfunc_end59:
	.size	mpi_reduce_scatter, .Lfunc_end59-mpi_reduce_scatter
	.cfi_endproc
                                        # -- End function
	.globl	mpi_reduce_             # -- Begin function mpi_reduce_
	.p2align	4, 0x90
	.type	mpi_reduce_,@function
mpi_reduce_:                            # @mpi_reduce_
	.cfi_startproc
# %bb.0:                                # %entry
	pushq	%rbp
	.cfi_def_cfa_offset 16
	.cfi_offset %rbp, -16
	movq	%rsp, %rbp
	.cfi_def_cfa_register %rbp
	pushq	%r15
	pushq	%r14
	pushq	%r13
	pushq	%r12
	pushq	%rbx
	subq	$120, %rsp
	.cfi_offset %rbx, -56
	.cfi_offset %r12, -48
	.cfi_offset %r13, -40
	.cfi_offset %r14, -32
	.cfi_offset %r15, -24
	movq	%r9, -48(%rbp)          # 8-byte Spill
	movq	%r8, %r12
	movq	%rcx, %r13
	movq	%rdx, %rbx
	movq	%rsi, %r14
	movq	%rdi, %r15
	movq	24(%rbp), %rax
	movq	16(%rbp), %rax
	movl	$186, __profile__funcID
	callq	__profile__record_time_begin
	movq	%rax, -56(%rbp)         # 8-byte Spill
	movq	%r15, -104(%rbp)
	movq	%r14, -96(%rbp)
	movq	%rbx, -88(%rbp)
	movq	%r13, -80(%rbp)
	movq	%r12, -72(%rbp)
	movq	-48(%rbp), %rax         # 8-byte Reload
	movq	%rax, -64(%rbp)
	movq	-104(%rbp), %rdi
	movq	-96(%rbp), %rsi
	movq	-88(%rbp), %rax
	movl	(%rax), %edx
	movq	-80(%rbp), %rax
	movl	(%rax), %ecx
	movq	-72(%rbp), %rax
	movl	(%rax), %r8d
	movq	-64(%rbp), %rax
	movl	(%rax), %r9d
	movq	16(%rbp), %rax
	movl	(%rax), %eax
	movl	%eax, (%rsp)
	callq	MPI_Reduce
	movq	24(%rbp), %rcx
	movl	%eax, (%rcx)
	movabsq	$.L__unnamed_61, %rdi
	movq	-56(%rbp), %rsi         # 8-byte Reload
	callq	__profile__record_time_end
	addq	$120, %rsp
	popq	%rbx
	popq	%r12
	popq	%r13
	popq	%r14
	popq	%r15
	popq	%rbp
	.cfi_def_cfa %rsp, 8
	retq
.Lfunc_end60:
	.size	mpi_reduce_, .Lfunc_end60-mpi_reduce_
	.cfi_endproc
                                        # -- End function
	.globl	mpi_reduce__            # -- Begin function mpi_reduce__
	.p2align	4, 0x90
	.type	mpi_reduce__,@function
mpi_reduce__:                           # @mpi_reduce__
	.cfi_startproc
# %bb.0:                                # %entry
	pushq	%rbp
	.cfi_def_cfa_offset 16
	.cfi_offset %rbp, -16
	movq	%rsp, %rbp
	.cfi_def_cfa_register %rbp
	pushq	%r15
	pushq	%r14
	pushq	%r13
	pushq	%r12
	pushq	%rbx
	subq	$120, %rsp
	.cfi_offset %rbx, -56
	.cfi_offset %r12, -48
	.cfi_offset %r13, -40
	.cfi_offset %r14, -32
	.cfi_offset %r15, -24
	movq	%r9, -48(%rbp)          # 8-byte Spill
	movq	%r8, %r15
	movq	%rcx, %r12
	movq	%rdx, %r13
	movq	%rsi, %rbx
	movq	%rdi, %r14
	movq	24(%rbp), %rax
	movq	16(%rbp), %rax
	movl	$187, __profile__funcID
	callq	__profile__record_time_begin
	movq	%rax, -56(%rbp)         # 8-byte Spill
	movq	%r14, -104(%rbp)
	movq	%rbx, -96(%rbp)
	movq	%r13, -88(%rbp)
	movq	%r12, -80(%rbp)
	movq	%r15, -72(%rbp)
	movq	-48(%rbp), %rax         # 8-byte Reload
	movq	%rax, -64(%rbp)
	movq	-104(%rbp), %rdi
	movq	-96(%rbp), %rsi
	movq	-88(%rbp), %rdx
	movq	-80(%rbp), %rcx
	movq	-72(%rbp), %r8
	movq	-64(%rbp), %r9
	movq	16(%rbp), %rax
	movq	24(%rbp), %rbx
	movq	%rax, (%rsp)
	movq	%rbx, 8(%rsp)
	callq	mpi_reduce_
	movabsq	$.L__unnamed_62, %rdi
	movq	-56(%rbp), %rsi         # 8-byte Reload
	callq	__profile__record_time_end
	addq	$120, %rsp
	popq	%rbx
	popq	%r12
	popq	%r13
	popq	%r14
	popq	%r15
	popq	%rbp
	.cfi_def_cfa %rsp, 8
	retq
.Lfunc_end61:
	.size	mpi_reduce__, .Lfunc_end61-mpi_reduce__
	.cfi_endproc
                                        # -- End function
	.globl	MPI_REDUCE              # -- Begin function MPI_REDUCE
	.p2align	4, 0x90
	.type	MPI_REDUCE,@function
MPI_REDUCE:                             # @MPI_REDUCE
	.cfi_startproc
# %bb.0:                                # %entry
	pushq	%rbp
	.cfi_def_cfa_offset 16
	.cfi_offset %rbp, -16
	movq	%rsp, %rbp
	.cfi_def_cfa_register %rbp
	pushq	%r15
	pushq	%r14
	pushq	%r13
	pushq	%r12
	pushq	%rbx
	subq	$120, %rsp
	.cfi_offset %rbx, -56
	.cfi_offset %r12, -48
	.cfi_offset %r13, -40
	.cfi_offset %r14, -32
	.cfi_offset %r15, -24
	movq	%r9, -48(%rbp)          # 8-byte Spill
	movq	%r8, %r15
	movq	%rcx, %r12
	movq	%rdx, %r13
	movq	%rsi, %rbx
	movq	%rdi, %r14
	movq	24(%rbp), %rax
	movq	16(%rbp), %rax
	movl	$188, __profile__funcID
	callq	__profile__record_time_begin
	movq	%rax, -56(%rbp)         # 8-byte Spill
	movq	%r14, -104(%rbp)
	movq	%rbx, -96(%rbp)
	movq	%r13, -88(%rbp)
	movq	%r12, -80(%rbp)
	movq	%r15, -72(%rbp)
	movq	-48(%rbp), %rax         # 8-byte Reload
	movq	%rax, -64(%rbp)
	movq	-104(%rbp), %rdi
	movq	-96(%rbp), %rsi
	movq	-88(%rbp), %rdx
	movq	-80(%rbp), %rcx
	movq	-72(%rbp), %r8
	movq	-64(%rbp), %r9
	movq	16(%rbp), %rax
	movq	24(%rbp), %rbx
	movq	%rax, (%rsp)
	movq	%rbx, 8(%rsp)
	callq	mpi_reduce_
	movabsq	$.L__unnamed_63, %rdi
	movq	-56(%rbp), %rsi         # 8-byte Reload
	callq	__profile__record_time_end
	addq	$120, %rsp
	popq	%rbx
	popq	%r12
	popq	%r13
	popq	%r14
	popq	%r15
	popq	%rbp
	.cfi_def_cfa %rsp, 8
	retq
.Lfunc_end62:
	.size	MPI_REDUCE, .Lfunc_end62-MPI_REDUCE
	.cfi_endproc
                                        # -- End function
	.globl	MPI_REDUCE_             # -- Begin function MPI_REDUCE_
	.p2align	4, 0x90
	.type	MPI_REDUCE_,@function
MPI_REDUCE_:                            # @MPI_REDUCE_
	.cfi_startproc
# %bb.0:                                # %entry
	pushq	%rbp
	.cfi_def_cfa_offset 16
	.cfi_offset %rbp, -16
	movq	%rsp, %rbp
	.cfi_def_cfa_register %rbp
	pushq	%r15
	pushq	%r14
	pushq	%r13
	pushq	%r12
	pushq	%rbx
	subq	$120, %rsp
	.cfi_offset %rbx, -56
	.cfi_offset %r12, -48
	.cfi_offset %r13, -40
	.cfi_offset %r14, -32
	.cfi_offset %r15, -24
	movq	%r9, -48(%rbp)          # 8-byte Spill
	movq	%r8, %r15
	movq	%rcx, %r12
	movq	%rdx, %r13
	movq	%rsi, %rbx
	movq	%rdi, %r14
	movq	24(%rbp), %rax
	movq	16(%rbp), %rax
	movl	$189, __profile__funcID
	callq	__profile__record_time_begin
	movq	%rax, -56(%rbp)         # 8-byte Spill
	movq	%r14, -104(%rbp)
	movq	%rbx, -96(%rbp)
	movq	%r13, -88(%rbp)
	movq	%r12, -80(%rbp)
	movq	%r15, -72(%rbp)
	movq	-48(%rbp), %rax         # 8-byte Reload
	movq	%rax, -64(%rbp)
	movq	-104(%rbp), %rdi
	movq	-96(%rbp), %rsi
	movq	-88(%rbp), %rdx
	movq	-80(%rbp), %rcx
	movq	-72(%rbp), %r8
	movq	-64(%rbp), %r9
	movq	16(%rbp), %rax
	movq	24(%rbp), %rbx
	movq	%rax, (%rsp)
	movq	%rbx, 8(%rsp)
	callq	mpi_reduce_
	movabsq	$.L__unnamed_64, %rdi
	movq	-56(%rbp), %rsi         # 8-byte Reload
	callq	__profile__record_time_end
	addq	$120, %rsp
	popq	%rbx
	popq	%r12
	popq	%r13
	popq	%r14
	popq	%r15
	popq	%rbp
	.cfi_def_cfa %rsp, 8
	retq
.Lfunc_end63:
	.size	MPI_REDUCE_, .Lfunc_end63-MPI_REDUCE_
	.cfi_endproc
                                        # -- End function
	.globl	mpi_reduce              # -- Begin function mpi_reduce
	.p2align	4, 0x90
	.type	mpi_reduce,@function
mpi_reduce:                             # @mpi_reduce
	.cfi_startproc
# %bb.0:                                # %entry
	pushq	%rbp
	.cfi_def_cfa_offset 16
	.cfi_offset %rbp, -16
	movq	%rsp, %rbp
	.cfi_def_cfa_register %rbp
	pushq	%r15
	pushq	%r14
	pushq	%r13
	pushq	%r12
	pushq	%rbx
	subq	$120, %rsp
	.cfi_offset %rbx, -56
	.cfi_offset %r12, -48
	.cfi_offset %r13, -40
	.cfi_offset %r14, -32
	.cfi_offset %r15, -24
	movq	%r9, -48(%rbp)          # 8-byte Spill
	movq	%r8, %r15
	movq	%rcx, %r12
	movq	%rdx, %r13
	movq	%rsi, %rbx
	movq	%rdi, %r14
	movq	24(%rbp), %rax
	movq	16(%rbp), %rax
	movl	$190, __profile__funcID
	callq	__profile__record_time_begin
	movq	%rax, -56(%rbp)         # 8-byte Spill
	movq	%r14, -104(%rbp)
	movq	%rbx, -96(%rbp)
	movq	%r13, -88(%rbp)
	movq	%r12, -80(%rbp)
	movq	%r15, -72(%rbp)
	movq	-48(%rbp), %rax         # 8-byte Reload
	movq	%rax, -64(%rbp)
	movq	-104(%rbp), %rdi
	movq	-96(%rbp), %rsi
	movq	-88(%rbp), %rdx
	movq	-80(%rbp), %rcx
	movq	-72(%rbp), %r8
	movq	-64(%rbp), %r9
	movq	16(%rbp), %rax
	movq	24(%rbp), %rbx
	movq	%rax, (%rsp)
	movq	%rbx, 8(%rsp)
	callq	mpi_reduce_
	movabsq	$.L__unnamed_65, %rdi
	movq	-56(%rbp), %rsi         # 8-byte Reload
	callq	__profile__record_time_end
	addq	$120, %rsp
	popq	%rbx
	popq	%r12
	popq	%r13
	popq	%r14
	popq	%r15
	popq	%rbp
	.cfi_def_cfa %rsp, 8
	retq
.Lfunc_end64:
	.size	mpi_reduce, .Lfunc_end64-mpi_reduce
	.cfi_endproc
                                        # -- End function
	.globl	mpi_scan_               # -- Begin function mpi_scan_
	.p2align	4, 0x90
	.type	mpi_scan_,@function
mpi_scan_:                              # @mpi_scan_
	.cfi_startproc
# %bb.0:                                # %entry
	pushq	%rbp
	.cfi_def_cfa_offset 16
	.cfi_offset %rbp, -16
	movq	%rsp, %rbp
	.cfi_def_cfa_register %rbp
	pushq	%r15
	pushq	%r14
	pushq	%r13
	pushq	%r12
	pushq	%rbx
	subq	$104, %rsp
	.cfi_offset %rbx, -56
	.cfi_offset %r12, -48
	.cfi_offset %r13, -40
	.cfi_offset %r14, -32
	.cfi_offset %r15, -24
	movq	%r9, -48(%rbp)          # 8-byte Spill
	movq	%r8, %r15
	movq	%rcx, %r12
	movq	%rdx, %r13
	movq	%rsi, %rbx
	movq	%rdi, %r14
	movq	16(%rbp), %rax
	movl	$191, __profile__funcID
	callq	__profile__record_time_begin
	movq	%rax, -56(%rbp)         # 8-byte Spill
	movq	%r14, -104(%rbp)
	movq	%rbx, -96(%rbp)
	movq	%r13, -88(%rbp)
	movq	%r12, -80(%rbp)
	movq	%r15, -72(%rbp)
	movq	-48(%rbp), %rax         # 8-byte Reload
	movq	%rax, -64(%rbp)
	movq	-104(%rbp), %rdi
	movq	-96(%rbp), %rsi
	movq	-88(%rbp), %rax
	movl	(%rax), %edx
	movq	-80(%rbp), %rax
	movl	(%rax), %ecx
	movq	-72(%rbp), %rax
	movl	(%rax), %r8d
	movq	-64(%rbp), %rax
	movl	(%rax), %r9d
	callq	MPI_Scan
	movq	16(%rbp), %rcx
	movl	%eax, (%rcx)
	movabsq	$.L__unnamed_66, %rdi
	movq	-56(%rbp), %rsi         # 8-byte Reload
	callq	__profile__record_time_end
	addq	$104, %rsp
	popq	%rbx
	popq	%r12
	popq	%r13
	popq	%r14
	popq	%r15
	popq	%rbp
	.cfi_def_cfa %rsp, 8
	retq
.Lfunc_end65:
	.size	mpi_scan_, .Lfunc_end65-mpi_scan_
	.cfi_endproc
                                        # -- End function
	.globl	mpi_scan__              # -- Begin function mpi_scan__
	.p2align	4, 0x90
	.type	mpi_scan__,@function
mpi_scan__:                             # @mpi_scan__
	.cfi_startproc
# %bb.0:                                # %entry
	pushq	%rbp
	.cfi_def_cfa_offset 16
	.cfi_offset %rbp, -16
	movq	%rsp, %rbp
	.cfi_def_cfa_register %rbp
	pushq	%r15
	pushq	%r14
	pushq	%r13
	pushq	%r12
	pushq	%rbx
	subq	$120, %rsp
	.cfi_offset %rbx, -56
	.cfi_offset %r12, -48
	.cfi_offset %r13, -40
	.cfi_offset %r14, -32
	.cfi_offset %r15, -24
	movq	%r9, -48(%rbp)          # 8-byte Spill
	movq	%r8, %r15
	movq	%rcx, %r12
	movq	%rdx, %r13
	movq	%rsi, %rbx
	movq	%rdi, %r14
	movq	16(%rbp), %rax
	movl	$192, __profile__funcID
	callq	__profile__record_time_begin
	movq	%rax, -56(%rbp)         # 8-byte Spill
	movq	%r14, -104(%rbp)
	movq	%rbx, -96(%rbp)
	movq	%r13, -88(%rbp)
	movq	%r12, -80(%rbp)
	movq	%r15, -72(%rbp)
	movq	-48(%rbp), %rax         # 8-byte Reload
	movq	%rax, -64(%rbp)
	movq	-104(%rbp), %rdi
	movq	-96(%rbp), %rsi
	movq	-88(%rbp), %rdx
	movq	-80(%rbp), %rcx
	movq	-72(%rbp), %r8
	movq	-64(%rbp), %r9
	movq	16(%rbp), %rax
	movq	%rax, (%rsp)
	callq	mpi_scan_
	movabsq	$.L__unnamed_67, %rdi
	movq	-56(%rbp), %rsi         # 8-byte Reload
	callq	__profile__record_time_end
	addq	$120, %rsp
	popq	%rbx
	popq	%r12
	popq	%r13
	popq	%r14
	popq	%r15
	popq	%rbp
	.cfi_def_cfa %rsp, 8
	retq
.Lfunc_end66:
	.size	mpi_scan__, .Lfunc_end66-mpi_scan__
	.cfi_endproc
                                        # -- End function
	.globl	MPI_SCAN                # -- Begin function MPI_SCAN
	.p2align	4, 0x90
	.type	MPI_SCAN,@function
MPI_SCAN:                               # @MPI_SCAN
	.cfi_startproc
# %bb.0:                                # %entry
	pushq	%rbp
	.cfi_def_cfa_offset 16
	.cfi_offset %rbp, -16
	movq	%rsp, %rbp
	.cfi_def_cfa_register %rbp
	pushq	%r15
	pushq	%r14
	pushq	%r13
	pushq	%r12
	pushq	%rbx
	subq	$120, %rsp
	.cfi_offset %rbx, -56
	.cfi_offset %r12, -48
	.cfi_offset %r13, -40
	.cfi_offset %r14, -32
	.cfi_offset %r15, -24
	movq	%r9, -48(%rbp)          # 8-byte Spill
	movq	%r8, %r15
	movq	%rcx, %r12
	movq	%rdx, %r13
	movq	%rsi, %rbx
	movq	%rdi, %r14
	movq	16(%rbp), %rax
	movl	$193, __profile__funcID
	callq	__profile__record_time_begin
	movq	%rax, -56(%rbp)         # 8-byte Spill
	movq	%r14, -104(%rbp)
	movq	%rbx, -96(%rbp)
	movq	%r13, -88(%rbp)
	movq	%r12, -80(%rbp)
	movq	%r15, -72(%rbp)
	movq	-48(%rbp), %rax         # 8-byte Reload
	movq	%rax, -64(%rbp)
	movq	-104(%rbp), %rdi
	movq	-96(%rbp), %rsi
	movq	-88(%rbp), %rdx
	movq	-80(%rbp), %rcx
	movq	-72(%rbp), %r8
	movq	-64(%rbp), %r9
	movq	16(%rbp), %rax
	movq	%rax, (%rsp)
	callq	mpi_scan_
	movabsq	$.L__unnamed_68, %rdi
	movq	-56(%rbp), %rsi         # 8-byte Reload
	callq	__profile__record_time_end
	addq	$120, %rsp
	popq	%rbx
	popq	%r12
	popq	%r13
	popq	%r14
	popq	%r15
	popq	%rbp
	.cfi_def_cfa %rsp, 8
	retq
.Lfunc_end67:
	.size	MPI_SCAN, .Lfunc_end67-MPI_SCAN
	.cfi_endproc
                                        # -- End function
	.globl	MPI_SCAN_               # -- Begin function MPI_SCAN_
	.p2align	4, 0x90
	.type	MPI_SCAN_,@function
MPI_SCAN_:                              # @MPI_SCAN_
	.cfi_startproc
# %bb.0:                                # %entry
	pushq	%rbp
	.cfi_def_cfa_offset 16
	.cfi_offset %rbp, -16
	movq	%rsp, %rbp
	.cfi_def_cfa_register %rbp
	pushq	%r15
	pushq	%r14
	pushq	%r13
	pushq	%r12
	pushq	%rbx
	subq	$120, %rsp
	.cfi_offset %rbx, -56
	.cfi_offset %r12, -48
	.cfi_offset %r13, -40
	.cfi_offset %r14, -32
	.cfi_offset %r15, -24
	movq	%r9, -48(%rbp)          # 8-byte Spill
	movq	%r8, %r15
	movq	%rcx, %r12
	movq	%rdx, %r13
	movq	%rsi, %rbx
	movq	%rdi, %r14
	movq	16(%rbp), %rax
	movl	$194, __profile__funcID
	callq	__profile__record_time_begin
	movq	%rax, -56(%rbp)         # 8-byte Spill
	movq	%r14, -104(%rbp)
	movq	%rbx, -96(%rbp)
	movq	%r13, -88(%rbp)
	movq	%r12, -80(%rbp)
	movq	%r15, -72(%rbp)
	movq	-48(%rbp), %rax         # 8-byte Reload
	movq	%rax, -64(%rbp)
	movq	-104(%rbp), %rdi
	movq	-96(%rbp), %rsi
	movq	-88(%rbp), %rdx
	movq	-80(%rbp), %rcx
	movq	-72(%rbp), %r8
	movq	-64(%rbp), %r9
	movq	16(%rbp), %rax
	movq	%rax, (%rsp)
	callq	mpi_scan_
	movabsq	$.L__unnamed_69, %rdi
	movq	-56(%rbp), %rsi         # 8-byte Reload
	callq	__profile__record_time_end
	addq	$120, %rsp
	popq	%rbx
	popq	%r12
	popq	%r13
	popq	%r14
	popq	%r15
	popq	%rbp
	.cfi_def_cfa %rsp, 8
	retq
.Lfunc_end68:
	.size	MPI_SCAN_, .Lfunc_end68-MPI_SCAN_
	.cfi_endproc
                                        # -- End function
	.globl	mpi_scan                # -- Begin function mpi_scan
	.p2align	4, 0x90
	.type	mpi_scan,@function
mpi_scan:                               # @mpi_scan
	.cfi_startproc
# %bb.0:                                # %entry
	pushq	%rbp
	.cfi_def_cfa_offset 16
	.cfi_offset %rbp, -16
	movq	%rsp, %rbp
	.cfi_def_cfa_register %rbp
	pushq	%r15
	pushq	%r14
	pushq	%r13
	pushq	%r12
	pushq	%rbx
	subq	$120, %rsp
	.cfi_offset %rbx, -56
	.cfi_offset %r12, -48
	.cfi_offset %r13, -40
	.cfi_offset %r14, -32
	.cfi_offset %r15, -24
	movq	%r9, -48(%rbp)          # 8-byte Spill
	movq	%r8, %r15
	movq	%rcx, %r12
	movq	%rdx, %r13
	movq	%rsi, %rbx
	movq	%rdi, %r14
	movq	16(%rbp), %rax
	movl	$195, __profile__funcID
	callq	__profile__record_time_begin
	movq	%rax, -56(%rbp)         # 8-byte Spill
	movq	%r14, -104(%rbp)
	movq	%rbx, -96(%rbp)
	movq	%r13, -88(%rbp)
	movq	%r12, -80(%rbp)
	movq	%r15, -72(%rbp)
	movq	-48(%rbp), %rax         # 8-byte Reload
	movq	%rax, -64(%rbp)
	movq	-104(%rbp), %rdi
	movq	-96(%rbp), %rsi
	movq	-88(%rbp), %rdx
	movq	-80(%rbp), %rcx
	movq	-72(%rbp), %r8
	movq	-64(%rbp), %r9
	movq	16(%rbp), %rax
	movq	%rax, (%rsp)
	callq	mpi_scan_
	movabsq	$.L__unnamed_70, %rdi
	movq	-56(%rbp), %rsi         # 8-byte Reload
	callq	__profile__record_time_end
	addq	$120, %rsp
	popq	%rbx
	popq	%r12
	popq	%r13
	popq	%r14
	popq	%r15
	popq	%rbp
	.cfi_def_cfa %rsp, 8
	retq
.Lfunc_end69:
	.size	mpi_scan, .Lfunc_end69-mpi_scan
	.cfi_endproc
                                        # -- End function
	.globl	mpi_scatter_            # -- Begin function mpi_scatter_
	.p2align	4, 0x90
	.type	mpi_scatter_,@function
mpi_scatter_:                           # @mpi_scatter_
	.cfi_startproc
# %bb.0:                                # %entry
	pushq	%rbp
	.cfi_def_cfa_offset 16
	.cfi_offset %rbp, -16
	movq	%rsp, %rbp
	.cfi_def_cfa_register %rbp
	pushq	%r15
	pushq	%r14
	pushq	%r13
	pushq	%r12
	pushq	%rbx
	subq	$120, %rsp
	.cfi_offset %rbx, -56
	.cfi_offset %r12, -48
	.cfi_offset %r13, -40
	.cfi_offset %r14, -32
	.cfi_offset %r15, -24
	movq	%r9, -48(%rbp)          # 8-byte Spill
	movq	%r8, %r12
	movq	%rcx, %r13
	movq	%rdx, %rbx
	movq	%rsi, %r14
	movq	%rdi, %r15
	movq	32(%rbp), %rax
	movq	24(%rbp), %rax
	movq	16(%rbp), %rax
	movl	$196, __profile__funcID
	callq	__profile__record_time_begin
	movq	%rax, -56(%rbp)         # 8-byte Spill
	movq	%r15, -104(%rbp)
	movq	%r14, -96(%rbp)
	movq	%rbx, -88(%rbp)
	movq	%r13, -80(%rbp)
	movq	%r12, -72(%rbp)
	movq	-48(%rbp), %rax         # 8-byte Reload
	movq	%rax, -64(%rbp)
	movq	-104(%rbp), %rdi
	movq	-96(%rbp), %rax
	movl	(%rax), %esi
	movq	-88(%rbp), %rax
	movl	(%rax), %edx
	movq	-80(%rbp), %rcx
	movq	-72(%rbp), %rax
	movl	(%rax), %r8d
	movq	-64(%rbp), %rax
	movl	(%rax), %r9d
	movq	16(%rbp), %rax
	movl	(%rax), %eax
	movq	24(%rbp), %rbx
	movl	(%rbx), %ebx
	movl	%eax, (%rsp)
	movl	%ebx, 8(%rsp)
	callq	MPI_Scatter
	movq	32(%rbp), %rcx
	movl	%eax, (%rcx)
	movabsq	$.L__unnamed_71, %rdi
	movq	-56(%rbp), %rsi         # 8-byte Reload
	callq	__profile__record_time_end
	addq	$120, %rsp
	popq	%rbx
	popq	%r12
	popq	%r13
	popq	%r14
	popq	%r15
	popq	%rbp
	.cfi_def_cfa %rsp, 8
	retq
.Lfunc_end70:
	.size	mpi_scatter_, .Lfunc_end70-mpi_scatter_
	.cfi_endproc
                                        # -- End function
	.globl	mpi_scatter__           # -- Begin function mpi_scatter__
	.p2align	4, 0x90
	.type	mpi_scatter__,@function
mpi_scatter__:                          # @mpi_scatter__
	.cfi_startproc
# %bb.0:                                # %entry
	pushq	%rbp
	.cfi_def_cfa_offset 16
	.cfi_offset %rbp, -16
	movq	%rsp, %rbp
	.cfi_def_cfa_register %rbp
	pushq	%r15
	pushq	%r14
	pushq	%r13
	pushq	%r12
	pushq	%rbx
	subq	$136, %rsp
	.cfi_offset %rbx, -56
	.cfi_offset %r12, -48
	.cfi_offset %r13, -40
	.cfi_offset %r14, -32
	.cfi_offset %r15, -24
	movq	%r9, -48(%rbp)          # 8-byte Spill
	movq	%r8, %r15
	movq	%rcx, %r12
	movq	%rdx, %r13
	movq	%rsi, %rbx
	movq	%rdi, %r14
	movq	32(%rbp), %rax
	movq	24(%rbp), %rax
	movq	16(%rbp), %rax
	movl	$197, __profile__funcID
	callq	__profile__record_time_begin
	movq	%rax, -56(%rbp)         # 8-byte Spill
	movq	%r14, -104(%rbp)
	movq	%rbx, -96(%rbp)
	movq	%r13, -88(%rbp)
	movq	%r12, -80(%rbp)
	movq	%r15, -72(%rbp)
	movq	-48(%rbp), %rax         # 8-byte Reload
	movq	%rax, -64(%rbp)
	movq	-104(%rbp), %rdi
	movq	-96(%rbp), %rsi
	movq	-88(%rbp), %rdx
	movq	-80(%rbp), %rcx
	movq	-72(%rbp), %r8
	movq	-64(%rbp), %r9
	movq	16(%rbp), %rax
	movq	24(%rbp), %rbx
	movq	32(%rbp), %r10
	movq	%rax, (%rsp)
	movq	%rbx, 8(%rsp)
	movq	%r10, 16(%rsp)
	callq	mpi_scatter_
	movabsq	$.L__unnamed_72, %rdi
	movq	-56(%rbp), %rsi         # 8-byte Reload
	callq	__profile__record_time_end
	addq	$136, %rsp
	popq	%rbx
	popq	%r12
	popq	%r13
	popq	%r14
	popq	%r15
	popq	%rbp
	.cfi_def_cfa %rsp, 8
	retq
.Lfunc_end71:
	.size	mpi_scatter__, .Lfunc_end71-mpi_scatter__
	.cfi_endproc
                                        # -- End function
	.globl	MPI_SCATTER             # -- Begin function MPI_SCATTER
	.p2align	4, 0x90
	.type	MPI_SCATTER,@function
MPI_SCATTER:                            # @MPI_SCATTER
	.cfi_startproc
# %bb.0:                                # %entry
	pushq	%rbp
	.cfi_def_cfa_offset 16
	.cfi_offset %rbp, -16
	movq	%rsp, %rbp
	.cfi_def_cfa_register %rbp
	pushq	%r15
	pushq	%r14
	pushq	%r13
	pushq	%r12
	pushq	%rbx
	subq	$136, %rsp
	.cfi_offset %rbx, -56
	.cfi_offset %r12, -48
	.cfi_offset %r13, -40
	.cfi_offset %r14, -32
	.cfi_offset %r15, -24
	movq	%r9, -48(%rbp)          # 8-byte Spill
	movq	%r8, %r15
	movq	%rcx, %r12
	movq	%rdx, %r13
	movq	%rsi, %rbx
	movq	%rdi, %r14
	movq	32(%rbp), %rax
	movq	24(%rbp), %rax
	movq	16(%rbp), %rax
	movl	$198, __profile__funcID
	callq	__profile__record_time_begin
	movq	%rax, -56(%rbp)         # 8-byte Spill
	movq	%r14, -104(%rbp)
	movq	%rbx, -96(%rbp)
	movq	%r13, -88(%rbp)
	movq	%r12, -80(%rbp)
	movq	%r15, -72(%rbp)
	movq	-48(%rbp), %rax         # 8-byte Reload
	movq	%rax, -64(%rbp)
	movq	-104(%rbp), %rdi
	movq	-96(%rbp), %rsi
	movq	-88(%rbp), %rdx
	movq	-80(%rbp), %rcx
	movq	-72(%rbp), %r8
	movq	-64(%rbp), %r9
	movq	16(%rbp), %rax
	movq	24(%rbp), %rbx
	movq	32(%rbp), %r10
	movq	%rax, (%rsp)
	movq	%rbx, 8(%rsp)
	movq	%r10, 16(%rsp)
	callq	mpi_scatter_
	movabsq	$.L__unnamed_73, %rdi
	movq	-56(%rbp), %rsi         # 8-byte Reload
	callq	__profile__record_time_end
	addq	$136, %rsp
	popq	%rbx
	popq	%r12
	popq	%r13
	popq	%r14
	popq	%r15
	popq	%rbp
	.cfi_def_cfa %rsp, 8
	retq
.Lfunc_end72:
	.size	MPI_SCATTER, .Lfunc_end72-MPI_SCATTER
	.cfi_endproc
                                        # -- End function
	.globl	MPI_SCATTER_            # -- Begin function MPI_SCATTER_
	.p2align	4, 0x90
	.type	MPI_SCATTER_,@function
MPI_SCATTER_:                           # @MPI_SCATTER_
	.cfi_startproc
# %bb.0:                                # %entry
	pushq	%rbp
	.cfi_def_cfa_offset 16
	.cfi_offset %rbp, -16
	movq	%rsp, %rbp
	.cfi_def_cfa_register %rbp
	pushq	%r15
	pushq	%r14
	pushq	%r13
	pushq	%r12
	pushq	%rbx
	subq	$136, %rsp
	.cfi_offset %rbx, -56
	.cfi_offset %r12, -48
	.cfi_offset %r13, -40
	.cfi_offset %r14, -32
	.cfi_offset %r15, -24
	movq	%r9, -48(%rbp)          # 8-byte Spill
	movq	%r8, %r15
	movq	%rcx, %r12
	movq	%rdx, %r13
	movq	%rsi, %rbx
	movq	%rdi, %r14
	movq	32(%rbp), %rax
	movq	24(%rbp), %rax
	movq	16(%rbp), %rax
	movl	$199, __profile__funcID
	callq	__profile__record_time_begin
	movq	%rax, -56(%rbp)         # 8-byte Spill
	movq	%r14, -104(%rbp)
	movq	%rbx, -96(%rbp)
	movq	%r13, -88(%rbp)
	movq	%r12, -80(%rbp)
	movq	%r15, -72(%rbp)
	movq	-48(%rbp), %rax         # 8-byte Reload
	movq	%rax, -64(%rbp)
	movq	-104(%rbp), %rdi
	movq	-96(%rbp), %rsi
	movq	-88(%rbp), %rdx
	movq	-80(%rbp), %rcx
	movq	-72(%rbp), %r8
	movq	-64(%rbp), %r9
	movq	16(%rbp), %rax
	movq	24(%rbp), %rbx
	movq	32(%rbp), %r10
	movq	%rax, (%rsp)
	movq	%rbx, 8(%rsp)
	movq	%r10, 16(%rsp)
	callq	mpi_scatter_
	movabsq	$.L__unnamed_74, %rdi
	movq	-56(%rbp), %rsi         # 8-byte Reload
	callq	__profile__record_time_end
	addq	$136, %rsp
	popq	%rbx
	popq	%r12
	popq	%r13
	popq	%r14
	popq	%r15
	popq	%rbp
	.cfi_def_cfa %rsp, 8
	retq
.Lfunc_end73:
	.size	MPI_SCATTER_, .Lfunc_end73-MPI_SCATTER_
	.cfi_endproc
                                        # -- End function
	.globl	mpi_scatter             # -- Begin function mpi_scatter
	.p2align	4, 0x90
	.type	mpi_scatter,@function
mpi_scatter:                            # @mpi_scatter
	.cfi_startproc
# %bb.0:                                # %entry
	pushq	%rbp
	.cfi_def_cfa_offset 16
	.cfi_offset %rbp, -16
	movq	%rsp, %rbp
	.cfi_def_cfa_register %rbp
	pushq	%r15
	pushq	%r14
	pushq	%r13
	pushq	%r12
	pushq	%rbx
	subq	$136, %rsp
	.cfi_offset %rbx, -56
	.cfi_offset %r12, -48
	.cfi_offset %r13, -40
	.cfi_offset %r14, -32
	.cfi_offset %r15, -24
	movq	%r9, -48(%rbp)          # 8-byte Spill
	movq	%r8, %r15
	movq	%rcx, %r12
	movq	%rdx, %r13
	movq	%rsi, %rbx
	movq	%rdi, %r14
	movq	32(%rbp), %rax
	movq	24(%rbp), %rax
	movq	16(%rbp), %rax
	movl	$200, __profile__funcID
	callq	__profile__record_time_begin
	movq	%rax, -56(%rbp)         # 8-byte Spill
	movq	%r14, -104(%rbp)
	movq	%rbx, -96(%rbp)
	movq	%r13, -88(%rbp)
	movq	%r12, -80(%rbp)
	movq	%r15, -72(%rbp)
	movq	-48(%rbp), %rax         # 8-byte Reload
	movq	%rax, -64(%rbp)
	movq	-104(%rbp), %rdi
	movq	-96(%rbp), %rsi
	movq	-88(%rbp), %rdx
	movq	-80(%rbp), %rcx
	movq	-72(%rbp), %r8
	movq	-64(%rbp), %r9
	movq	16(%rbp), %rax
	movq	24(%rbp), %rbx
	movq	32(%rbp), %r10
	movq	%rax, (%rsp)
	movq	%rbx, 8(%rsp)
	movq	%r10, 16(%rsp)
	callq	mpi_scatter_
	movabsq	$.L__unnamed_75, %rdi
	movq	-56(%rbp), %rsi         # 8-byte Reload
	callq	__profile__record_time_end
	addq	$136, %rsp
	popq	%rbx
	popq	%r12
	popq	%r13
	popq	%r14
	popq	%r15
	popq	%rbp
	.cfi_def_cfa %rsp, 8
	retq
.Lfunc_end74:
	.size	mpi_scatter, .Lfunc_end74-mpi_scatter
	.cfi_endproc
                                        # -- End function
	.globl	mpi_scatterv_           # -- Begin function mpi_scatterv_
	.p2align	4, 0x90
	.type	mpi_scatterv_,@function
mpi_scatterv_:                          # @mpi_scatterv_
	.cfi_startproc
# %bb.0:                                # %entry
	pushq	%rbp
	.cfi_def_cfa_offset 16
	.cfi_offset %rbp, -16
	movq	%rsp, %rbp
	.cfi_def_cfa_register %rbp
	pushq	%r15
	pushq	%r14
	pushq	%r13
	pushq	%r12
	pushq	%rbx
	subq	$136, %rsp
	.cfi_offset %rbx, -56
	.cfi_offset %r12, -48
	.cfi_offset %r13, -40
	.cfi_offset %r14, -32
	.cfi_offset %r15, -24
	movq	%r9, -48(%rbp)          # 8-byte Spill
	movq	%r8, %r12
	movq	%rcx, %r13
	movq	%rdx, %rbx
	movq	%rsi, %r14
	movq	%rdi, %r15
	movq	40(%rbp), %rax
	movq	32(%rbp), %rax
	movq	24(%rbp), %rax
	movq	16(%rbp), %rax
	movl	$201, __profile__funcID
	callq	__profile__record_time_begin
	movq	%rax, -56(%rbp)         # 8-byte Spill
	movq	%r15, -104(%rbp)
	movq	%r14, -96(%rbp)
	movq	%rbx, -88(%rbp)
	movq	%r13, -80(%rbp)
	movq	%r12, -72(%rbp)
	movq	-48(%rbp), %rax         # 8-byte Reload
	movq	%rax, -64(%rbp)
	movq	-104(%rbp), %rdi
	movq	-96(%rbp), %rsi
	movq	-88(%rbp), %rdx
	movq	-80(%rbp), %rax
	movl	(%rax), %ecx
	movq	-72(%rbp), %r8
	movq	-64(%rbp), %rax
	movl	(%rax), %r9d
	movq	16(%rbp), %rax
	movl	(%rax), %r10d
	movq	24(%rbp), %rbx
	movl	(%rbx), %ebx
	movq	32(%rbp), %rax
	movl	(%rax), %eax
	movl	%r10d, (%rsp)
	movl	%ebx, 8(%rsp)
	movl	%eax, 16(%rsp)
	callq	MPI_Scatterv
	movq	40(%rbp), %rcx
	movl	%eax, (%rcx)
	movabsq	$.L__unnamed_76, %rdi
	movq	-56(%rbp), %rsi         # 8-byte Reload
	callq	__profile__record_time_end
	addq	$136, %rsp
	popq	%rbx
	popq	%r12
	popq	%r13
	popq	%r14
	popq	%r15
	popq	%rbp
	.cfi_def_cfa %rsp, 8
	retq
.Lfunc_end75:
	.size	mpi_scatterv_, .Lfunc_end75-mpi_scatterv_
	.cfi_endproc
                                        # -- End function
	.globl	mpi_scatterv__          # -- Begin function mpi_scatterv__
	.p2align	4, 0x90
	.type	mpi_scatterv__,@function
mpi_scatterv__:                         # @mpi_scatterv__
	.cfi_startproc
# %bb.0:                                # %entry
	pushq	%rbp
	.cfi_def_cfa_offset 16
	.cfi_offset %rbp, -16
	movq	%rsp, %rbp
	.cfi_def_cfa_register %rbp
	pushq	%r15
	pushq	%r14
	pushq	%r13
	pushq	%r12
	pushq	%rbx
	subq	$136, %rsp
	.cfi_offset %rbx, -56
	.cfi_offset %r12, -48
	.cfi_offset %r13, -40
	.cfi_offset %r14, -32
	.cfi_offset %r15, -24
	movq	%r9, -48(%rbp)          # 8-byte Spill
	movq	%r8, %r15
	movq	%rcx, %r12
	movq	%rdx, %r13
	movq	%rsi, %rbx
	movq	%rdi, %r14
	movq	40(%rbp), %rax
	movq	32(%rbp), %rax
	movq	24(%rbp), %rax
	movq	16(%rbp), %rax
	movl	$202, __profile__funcID
	callq	__profile__record_time_begin
	movq	%rax, -56(%rbp)         # 8-byte Spill
	movq	%r14, -104(%rbp)
	movq	%rbx, -96(%rbp)
	movq	%r13, -88(%rbp)
	movq	%r12, -80(%rbp)
	movq	%r15, -72(%rbp)
	movq	-48(%rbp), %rax         # 8-byte Reload
	movq	%rax, -64(%rbp)
	movq	-104(%rbp), %rdi
	movq	-96(%rbp), %rsi
	movq	-88(%rbp), %rdx
	movq	-80(%rbp), %rcx
	movq	-72(%rbp), %r8
	movq	-64(%rbp), %r9
	movq	16(%rbp), %rax
	movq	24(%rbp), %rbx
	movq	32(%rbp), %r10
	movq	40(%rbp), %r11
	movq	%rax, (%rsp)
	movq	%rbx, 8(%rsp)
	movq	%r10, 16(%rsp)
	movq	%r11, 24(%rsp)
	callq	mpi_scatterv_
	movabsq	$.L__unnamed_77, %rdi
	movq	-56(%rbp), %rsi         # 8-byte Reload
	callq	__profile__record_time_end
	addq	$136, %rsp
	popq	%rbx
	popq	%r12
	popq	%r13
	popq	%r14
	popq	%r15
	popq	%rbp
	.cfi_def_cfa %rsp, 8
	retq
.Lfunc_end76:
	.size	mpi_scatterv__, .Lfunc_end76-mpi_scatterv__
	.cfi_endproc
                                        # -- End function
	.globl	MPI_SCATTERV            # -- Begin function MPI_SCATTERV
	.p2align	4, 0x90
	.type	MPI_SCATTERV,@function
MPI_SCATTERV:                           # @MPI_SCATTERV
	.cfi_startproc
# %bb.0:                                # %entry
	pushq	%rbp
	.cfi_def_cfa_offset 16
	.cfi_offset %rbp, -16
	movq	%rsp, %rbp
	.cfi_def_cfa_register %rbp
	pushq	%r15
	pushq	%r14
	pushq	%r13
	pushq	%r12
	pushq	%rbx
	subq	$136, %rsp
	.cfi_offset %rbx, -56
	.cfi_offset %r12, -48
	.cfi_offset %r13, -40
	.cfi_offset %r14, -32
	.cfi_offset %r15, -24
	movq	%r9, -48(%rbp)          # 8-byte Spill
	movq	%r8, %r15
	movq	%rcx, %r12
	movq	%rdx, %r13
	movq	%rsi, %rbx
	movq	%rdi, %r14
	movq	40(%rbp), %rax
	movq	32(%rbp), %rax
	movq	24(%rbp), %rax
	movq	16(%rbp), %rax
	movl	$203, __profile__funcID
	callq	__profile__record_time_begin
	movq	%rax, -56(%rbp)         # 8-byte Spill
	movq	%r14, -104(%rbp)
	movq	%rbx, -96(%rbp)
	movq	%r13, -88(%rbp)
	movq	%r12, -80(%rbp)
	movq	%r15, -72(%rbp)
	movq	-48(%rbp), %rax         # 8-byte Reload
	movq	%rax, -64(%rbp)
	movq	-104(%rbp), %rdi
	movq	-96(%rbp), %rsi
	movq	-88(%rbp), %rdx
	movq	-80(%rbp), %rcx
	movq	-72(%rbp), %r8
	movq	-64(%rbp), %r9
	movq	16(%rbp), %rax
	movq	24(%rbp), %rbx
	movq	32(%rbp), %r10
	movq	40(%rbp), %r11
	movq	%rax, (%rsp)
	movq	%rbx, 8(%rsp)
	movq	%r10, 16(%rsp)
	movq	%r11, 24(%rsp)
	callq	mpi_scatterv_
	movabsq	$.L__unnamed_78, %rdi
	movq	-56(%rbp), %rsi         # 8-byte Reload
	callq	__profile__record_time_end
	addq	$136, %rsp
	popq	%rbx
	popq	%r12
	popq	%r13
	popq	%r14
	popq	%r15
	popq	%rbp
	.cfi_def_cfa %rsp, 8
	retq
.Lfunc_end77:
	.size	MPI_SCATTERV, .Lfunc_end77-MPI_SCATTERV
	.cfi_endproc
                                        # -- End function
	.globl	MPI_SCATTERV_           # -- Begin function MPI_SCATTERV_
	.p2align	4, 0x90
	.type	MPI_SCATTERV_,@function
MPI_SCATTERV_:                          # @MPI_SCATTERV_
	.cfi_startproc
# %bb.0:                                # %entry
	pushq	%rbp
	.cfi_def_cfa_offset 16
	.cfi_offset %rbp, -16
	movq	%rsp, %rbp
	.cfi_def_cfa_register %rbp
	pushq	%r15
	pushq	%r14
	pushq	%r13
	pushq	%r12
	pushq	%rbx
	subq	$136, %rsp
	.cfi_offset %rbx, -56
	.cfi_offset %r12, -48
	.cfi_offset %r13, -40
	.cfi_offset %r14, -32
	.cfi_offset %r15, -24
	movq	%r9, -48(%rbp)          # 8-byte Spill
	movq	%r8, %r15
	movq	%rcx, %r12
	movq	%rdx, %r13
	movq	%rsi, %rbx
	movq	%rdi, %r14
	movq	40(%rbp), %rax
	movq	32(%rbp), %rax
	movq	24(%rbp), %rax
	movq	16(%rbp), %rax
	movl	$204, __profile__funcID
	callq	__profile__record_time_begin
	movq	%rax, -56(%rbp)         # 8-byte Spill
	movq	%r14, -104(%rbp)
	movq	%rbx, -96(%rbp)
	movq	%r13, -88(%rbp)
	movq	%r12, -80(%rbp)
	movq	%r15, -72(%rbp)
	movq	-48(%rbp), %rax         # 8-byte Reload
	movq	%rax, -64(%rbp)
	movq	-104(%rbp), %rdi
	movq	-96(%rbp), %rsi
	movq	-88(%rbp), %rdx
	movq	-80(%rbp), %rcx
	movq	-72(%rbp), %r8
	movq	-64(%rbp), %r9
	movq	16(%rbp), %rax
	movq	24(%rbp), %rbx
	movq	32(%rbp), %r10
	movq	40(%rbp), %r11
	movq	%rax, (%rsp)
	movq	%rbx, 8(%rsp)
	movq	%r10, 16(%rsp)
	movq	%r11, 24(%rsp)
	callq	mpi_scatterv_
	movabsq	$.L__unnamed_79, %rdi
	movq	-56(%rbp), %rsi         # 8-byte Reload
	callq	__profile__record_time_end
	addq	$136, %rsp
	popq	%rbx
	popq	%r12
	popq	%r13
	popq	%r14
	popq	%r15
	popq	%rbp
	.cfi_def_cfa %rsp, 8
	retq
.Lfunc_end78:
	.size	MPI_SCATTERV_, .Lfunc_end78-MPI_SCATTERV_
	.cfi_endproc
                                        # -- End function
	.globl	mpi_scatterv            # -- Begin function mpi_scatterv
	.p2align	4, 0x90
	.type	mpi_scatterv,@function
mpi_scatterv:                           # @mpi_scatterv
	.cfi_startproc
# %bb.0:                                # %entry
	pushq	%rbp
	.cfi_def_cfa_offset 16
	.cfi_offset %rbp, -16
	movq	%rsp, %rbp
	.cfi_def_cfa_register %rbp
	pushq	%r15
	pushq	%r14
	pushq	%r13
	pushq	%r12
	pushq	%rbx
	subq	$136, %rsp
	.cfi_offset %rbx, -56
	.cfi_offset %r12, -48
	.cfi_offset %r13, -40
	.cfi_offset %r14, -32
	.cfi_offset %r15, -24
	movq	%r9, -48(%rbp)          # 8-byte Spill
	movq	%r8, %r15
	movq	%rcx, %r12
	movq	%rdx, %r13
	movq	%rsi, %rbx
	movq	%rdi, %r14
	movq	40(%rbp), %rax
	movq	32(%rbp), %rax
	movq	24(%rbp), %rax
	movq	16(%rbp), %rax
	movl	$205, __profile__funcID
	callq	__profile__record_time_begin
	movq	%rax, -56(%rbp)         # 8-byte Spill
	movq	%r14, -104(%rbp)
	movq	%rbx, -96(%rbp)
	movq	%r13, -88(%rbp)
	movq	%r12, -80(%rbp)
	movq	%r15, -72(%rbp)
	movq	-48(%rbp), %rax         # 8-byte Reload
	movq	%rax, -64(%rbp)
	movq	-104(%rbp), %rdi
	movq	-96(%rbp), %rsi
	movq	-88(%rbp), %rdx
	movq	-80(%rbp), %rcx
	movq	-72(%rbp), %r8
	movq	-64(%rbp), %r9
	movq	16(%rbp), %rax
	movq	24(%rbp), %rbx
	movq	32(%rbp), %r10
	movq	40(%rbp), %r11
	movq	%rax, (%rsp)
	movq	%rbx, 8(%rsp)
	movq	%r10, 16(%rsp)
	movq	%r11, 24(%rsp)
	callq	mpi_scatterv_
	movabsq	$.L__unnamed_80, %rdi
	movq	-56(%rbp), %rsi         # 8-byte Reload
	callq	__profile__record_time_end
	addq	$136, %rsp
	popq	%rbx
	popq	%r12
	popq	%r13
	popq	%r14
	popq	%r15
	popq	%rbp
	.cfi_def_cfa %rsp, 8
	retq
.Lfunc_end79:
	.size	mpi_scatterv, .Lfunc_end79-mpi_scatterv
	.cfi_endproc
                                        # -- End function
	.globl	mpi_attr_delete_        # -- Begin function mpi_attr_delete_
	.p2align	4, 0x90
	.type	mpi_attr_delete_,@function
mpi_attr_delete_:                       # @mpi_attr_delete_
	.cfi_startproc
# %bb.0:                                # %entry
	pushq	%rbp
	.cfi_def_cfa_offset 16
	.cfi_offset %rbp, -16
	movq	%rsp, %rbp
	.cfi_def_cfa_register %rbp
	pushq	%r15
	pushq	%r14
	pushq	%r12
	pushq	%rbx
	subq	$64, %rsp
	.cfi_offset %rbx, -48
	.cfi_offset %r12, -40
	.cfi_offset %r14, -32
	.cfi_offset %r15, -24
	movq	%rdx, %r14
	movq	%rsi, %r15
	movq	%rdi, %rbx
	movl	$206, __profile__funcID
	callq	__profile__record_time_begin
	movq	%rax, %r12
	movq	%rbx, -56(%rbp)
	movq	%r15, -48(%rbp)
	movq	%r14, -40(%rbp)
	movq	-56(%rbp), %rax
	movl	(%rax), %edi
	movq	-48(%rbp), %rax
	movl	(%rax), %esi
	callq	MPI_Attr_delete
	movq	-40(%rbp), %rcx
	movl	%eax, (%rcx)
	movabsq	$.L__unnamed_81, %rdi
	movq	%r12, %rsi
	callq	__profile__record_time_end
	addq	$64, %rsp
	popq	%rbx
	popq	%r12
	popq	%r14
	popq	%r15
	popq	%rbp
	.cfi_def_cfa %rsp, 8
	retq
.Lfunc_end80:
	.size	mpi_attr_delete_, .Lfunc_end80-mpi_attr_delete_
	.cfi_endproc
                                        # -- End function
	.globl	mpi_attr_delete__       # -- Begin function mpi_attr_delete__
	.p2align	4, 0x90
	.type	mpi_attr_delete__,@function
mpi_attr_delete__:                      # @mpi_attr_delete__
	.cfi_startproc
# %bb.0:                                # %entry
	pushq	%rbp
	.cfi_def_cfa_offset 16
	.cfi_offset %rbp, -16
	movq	%rsp, %rbp
	.cfi_def_cfa_register %rbp
	pushq	%r15
	pushq	%r14
	pushq	%r12
	pushq	%rbx
	subq	$64, %rsp
	.cfi_offset %rbx, -48
	.cfi_offset %r12, -40
	.cfi_offset %r14, -32
	.cfi_offset %r15, -24
	movq	%rdx, %r14
	movq	%rsi, %r15
	movq	%rdi, %rbx
	movl	$207, __profile__funcID
	callq	__profile__record_time_begin
	movq	%rax, %r12
	movq	%rbx, -56(%rbp)
	movq	%r15, -48(%rbp)
	movq	%r14, -40(%rbp)
	movq	-56(%rbp), %rdi
	movq	-48(%rbp), %rsi
	movq	-40(%rbp), %rdx
	callq	mpi_attr_delete_
	movabsq	$.L__unnamed_82, %rdi
	movq	%r12, %rsi
	callq	__profile__record_time_end
	addq	$64, %rsp
	popq	%rbx
	popq	%r12
	popq	%r14
	popq	%r15
	popq	%rbp
	.cfi_def_cfa %rsp, 8
	retq
.Lfunc_end81:
	.size	mpi_attr_delete__, .Lfunc_end81-mpi_attr_delete__
	.cfi_endproc
                                        # -- End function
	.globl	MPI_ATTR_DELETE         # -- Begin function MPI_ATTR_DELETE
	.p2align	4, 0x90
	.type	MPI_ATTR_DELETE,@function
MPI_ATTR_DELETE:                        # @MPI_ATTR_DELETE
	.cfi_startproc
# %bb.0:                                # %entry
	pushq	%rbp
	.cfi_def_cfa_offset 16
	.cfi_offset %rbp, -16
	movq	%rsp, %rbp
	.cfi_def_cfa_register %rbp
	pushq	%r15
	pushq	%r14
	pushq	%r12
	pushq	%rbx
	subq	$64, %rsp
	.cfi_offset %rbx, -48
	.cfi_offset %r12, -40
	.cfi_offset %r14, -32
	.cfi_offset %r15, -24
	movq	%rdx, %r14
	movq	%rsi, %r15
	movq	%rdi, %rbx
	movl	$208, __profile__funcID
	callq	__profile__record_time_begin
	movq	%rax, %r12
	movq	%rbx, -56(%rbp)
	movq	%r15, -48(%rbp)
	movq	%r14, -40(%rbp)
	movq	-56(%rbp), %rdi
	movq	-48(%rbp), %rsi
	movq	-40(%rbp), %rdx
	callq	mpi_attr_delete_
	movabsq	$.L__unnamed_83, %rdi
	movq	%r12, %rsi
	callq	__profile__record_time_end
	addq	$64, %rsp
	popq	%rbx
	popq	%r12
	popq	%r14
	popq	%r15
	popq	%rbp
	.cfi_def_cfa %rsp, 8
	retq
.Lfunc_end82:
	.size	MPI_ATTR_DELETE, .Lfunc_end82-MPI_ATTR_DELETE
	.cfi_endproc
                                        # -- End function
	.globl	MPI_ATTR_DELETE_        # -- Begin function MPI_ATTR_DELETE_
	.p2align	4, 0x90
	.type	MPI_ATTR_DELETE_,@function
MPI_ATTR_DELETE_:                       # @MPI_ATTR_DELETE_
	.cfi_startproc
# %bb.0:                                # %entry
	pushq	%rbp
	.cfi_def_cfa_offset 16
	.cfi_offset %rbp, -16
	movq	%rsp, %rbp
	.cfi_def_cfa_register %rbp
	pushq	%r15
	pushq	%r14
	pushq	%r12
	pushq	%rbx
	subq	$64, %rsp
	.cfi_offset %rbx, -48
	.cfi_offset %r12, -40
	.cfi_offset %r14, -32
	.cfi_offset %r15, -24
	movq	%rdx, %r14
	movq	%rsi, %r15
	movq	%rdi, %rbx
	movl	$209, __profile__funcID
	callq	__profile__record_time_begin
	movq	%rax, %r12
	movq	%rbx, -56(%rbp)
	movq	%r15, -48(%rbp)
	movq	%r14, -40(%rbp)
	movq	-56(%rbp), %rdi
	movq	-48(%rbp), %rsi
	movq	-40(%rbp), %rdx
	callq	mpi_attr_delete_
	movabsq	$.L__unnamed_84, %rdi
	movq	%r12, %rsi
	callq	__profile__record_time_end
	addq	$64, %rsp
	popq	%rbx
	popq	%r12
	popq	%r14
	popq	%r15
	popq	%rbp
	.cfi_def_cfa %rsp, 8
	retq
.Lfunc_end83:
	.size	MPI_ATTR_DELETE_, .Lfunc_end83-MPI_ATTR_DELETE_
	.cfi_endproc
                                        # -- End function
	.globl	mpi_attr_delete         # -- Begin function mpi_attr_delete
	.p2align	4, 0x90
	.type	mpi_attr_delete,@function
mpi_attr_delete:                        # @mpi_attr_delete
	.cfi_startproc
# %bb.0:                                # %entry
	pushq	%rbp
	.cfi_def_cfa_offset 16
	.cfi_offset %rbp, -16
	movq	%rsp, %rbp
	.cfi_def_cfa_register %rbp
	pushq	%r15
	pushq	%r14
	pushq	%r12
	pushq	%rbx
	subq	$64, %rsp
	.cfi_offset %rbx, -48
	.cfi_offset %r12, -40
	.cfi_offset %r14, -32
	.cfi_offset %r15, -24
	movq	%rdx, %r14
	movq	%rsi, %r15
	movq	%rdi, %rbx
	movl	$210, __profile__funcID
	callq	__profile__record_time_begin
	movq	%rax, %r12
	movq	%rbx, -56(%rbp)
	movq	%r15, -48(%rbp)
	movq	%r14, -40(%rbp)
	movq	-56(%rbp), %rdi
	movq	-48(%rbp), %rsi
	movq	-40(%rbp), %rdx
	callq	mpi_attr_delete_
	movabsq	$.L__unnamed_85, %rdi
	movq	%r12, %rsi
	callq	__profile__record_time_end
	addq	$64, %rsp
	popq	%rbx
	popq	%r12
	popq	%r14
	popq	%r15
	popq	%rbp
	.cfi_def_cfa %rsp, 8
	retq
.Lfunc_end84:
	.size	mpi_attr_delete, .Lfunc_end84-mpi_attr_delete
	.cfi_endproc
                                        # -- End function
	.globl	mpi_attr_get_           # -- Begin function mpi_attr_get_
	.p2align	4, 0x90
	.type	mpi_attr_get_,@function
mpi_attr_get_:                          # @mpi_attr_get_
	.cfi_startproc
# %bb.0:                                # %entry
	pushq	%rbp
	.cfi_def_cfa_offset 16
	.cfi_offset %rbp, -16
	movq	%rsp, %rbp
	.cfi_def_cfa_register %rbp
	pushq	%r15
	pushq	%r14
	pushq	%r13
	pushq	%r12
	pushq	%rbx
	subq	$88, %rsp
	.cfi_offset %rbx, -56
	.cfi_offset %r12, -48
	.cfi_offset %r13, -40
	.cfi_offset %r14, -32
	.cfi_offset %r15, -24
	movq	%r8, %r14
	movq	%rcx, %r15
	movq	%rdx, %r12
	movq	%rsi, %r13
	movq	%rdi, %rbx
	movl	$211, __profile__funcID
	callq	__profile__record_time_begin
	movq	%rax, -48(%rbp)         # 8-byte Spill
	movq	%rbx, -88(%rbp)
	movq	%r13, -80(%rbp)
	movq	%r12, -72(%rbp)
	movq	%r15, -64(%rbp)
	movq	%r14, -56(%rbp)
	movq	-88(%rbp), %rax
	movl	(%rax), %edi
	movq	-80(%rbp), %rax
	movl	(%rax), %esi
	movq	-72(%rbp), %rdx
	movq	-64(%rbp), %rcx
	callq	MPI_Attr_get
	movq	-56(%rbp), %rcx
	movl	%eax, (%rcx)
	movabsq	$.L__unnamed_86, %rdi
	movq	-48(%rbp), %rsi         # 8-byte Reload
	callq	__profile__record_time_end
	addq	$88, %rsp
	popq	%rbx
	popq	%r12
	popq	%r13
	popq	%r14
	popq	%r15
	popq	%rbp
	.cfi_def_cfa %rsp, 8
	retq
.Lfunc_end85:
	.size	mpi_attr_get_, .Lfunc_end85-mpi_attr_get_
	.cfi_endproc
                                        # -- End function
	.globl	mpi_attr_get__          # -- Begin function mpi_attr_get__
	.p2align	4, 0x90
	.type	mpi_attr_get__,@function
mpi_attr_get__:                         # @mpi_attr_get__
	.cfi_startproc
# %bb.0:                                # %entry
	pushq	%rbp
	.cfi_def_cfa_offset 16
	.cfi_offset %rbp, -16
	movq	%rsp, %rbp
	.cfi_def_cfa_register %rbp
	pushq	%r15
	pushq	%r14
	pushq	%r13
	pushq	%r12
	pushq	%rbx
	subq	$88, %rsp
	.cfi_offset %rbx, -56
	.cfi_offset %r12, -48
	.cfi_offset %r13, -40
	.cfi_offset %r14, -32
	.cfi_offset %r15, -24
	movq	%r8, %r14
	movq	%rcx, %r15
	movq	%rdx, %r12
	movq	%rsi, %r13
	movq	%rdi, %rbx
	movl	$212, __profile__funcID
	callq	__profile__record_time_begin
	movq	%rax, -48(%rbp)         # 8-byte Spill
	movq	%rbx, -88(%rbp)
	movq	%r13, -80(%rbp)
	movq	%r12, -72(%rbp)
	movq	%r15, -64(%rbp)
	movq	%r14, -56(%rbp)
	movq	-88(%rbp), %rdi
	movq	-80(%rbp), %rsi
	movq	-72(%rbp), %rdx
	movq	-64(%rbp), %rcx
	movq	-56(%rbp), %r8
	callq	mpi_attr_get_
	movabsq	$.L__unnamed_87, %rdi
	movq	-48(%rbp), %rsi         # 8-byte Reload
	callq	__profile__record_time_end
	addq	$88, %rsp
	popq	%rbx
	popq	%r12
	popq	%r13
	popq	%r14
	popq	%r15
	popq	%rbp
	.cfi_def_cfa %rsp, 8
	retq
.Lfunc_end86:
	.size	mpi_attr_get__, .Lfunc_end86-mpi_attr_get__
	.cfi_endproc
                                        # -- End function
	.globl	MPI_ATTR_GET            # -- Begin function MPI_ATTR_GET
	.p2align	4, 0x90
	.type	MPI_ATTR_GET,@function
MPI_ATTR_GET:                           # @MPI_ATTR_GET
	.cfi_startproc
# %bb.0:                                # %entry
	pushq	%rbp
	.cfi_def_cfa_offset 16
	.cfi_offset %rbp, -16
	movq	%rsp, %rbp
	.cfi_def_cfa_register %rbp
	pushq	%r15
	pushq	%r14
	pushq	%r13
	pushq	%r12
	pushq	%rbx
	subq	$88, %rsp
	.cfi_offset %rbx, -56
	.cfi_offset %r12, -48
	.cfi_offset %r13, -40
	.cfi_offset %r14, -32
	.cfi_offset %r15, -24
	movq	%r8, %r14
	movq	%rcx, %r15
	movq	%rdx, %r12
	movq	%rsi, %r13
	movq	%rdi, %rbx
	movl	$213, __profile__funcID
	callq	__profile__record_time_begin
	movq	%rax, -48(%rbp)         # 8-byte Spill
	movq	%rbx, -88(%rbp)
	movq	%r13, -80(%rbp)
	movq	%r12, -72(%rbp)
	movq	%r15, -64(%rbp)
	movq	%r14, -56(%rbp)
	movq	-88(%rbp), %rdi
	movq	-80(%rbp), %rsi
	movq	-72(%rbp), %rdx
	movq	-64(%rbp), %rcx
	movq	-56(%rbp), %r8
	callq	mpi_attr_get_
	movabsq	$.L__unnamed_88, %rdi
	movq	-48(%rbp), %rsi         # 8-byte Reload
	callq	__profile__record_time_end
	addq	$88, %rsp
	popq	%rbx
	popq	%r12
	popq	%r13
	popq	%r14
	popq	%r15
	popq	%rbp
	.cfi_def_cfa %rsp, 8
	retq
.Lfunc_end87:
	.size	MPI_ATTR_GET, .Lfunc_end87-MPI_ATTR_GET
	.cfi_endproc
                                        # -- End function
	.globl	MPI_ATTR_GET_           # -- Begin function MPI_ATTR_GET_
	.p2align	4, 0x90
	.type	MPI_ATTR_GET_,@function
MPI_ATTR_GET_:                          # @MPI_ATTR_GET_
	.cfi_startproc
# %bb.0:                                # %entry
	pushq	%rbp
	.cfi_def_cfa_offset 16
	.cfi_offset %rbp, -16
	movq	%rsp, %rbp
	.cfi_def_cfa_register %rbp
	pushq	%r15
	pushq	%r14
	pushq	%r13
	pushq	%r12
	pushq	%rbx
	subq	$88, %rsp
	.cfi_offset %rbx, -56
	.cfi_offset %r12, -48
	.cfi_offset %r13, -40
	.cfi_offset %r14, -32
	.cfi_offset %r15, -24
	movq	%r8, %r14
	movq	%rcx, %r15
	movq	%rdx, %r12
	movq	%rsi, %r13
	movq	%rdi, %rbx
	movl	$214, __profile__funcID
	callq	__profile__record_time_begin
	movq	%rax, -48(%rbp)         # 8-byte Spill
	movq	%rbx, -88(%rbp)
	movq	%r13, -80(%rbp)
	movq	%r12, -72(%rbp)
	movq	%r15, -64(%rbp)
	movq	%r14, -56(%rbp)
	movq	-88(%rbp), %rdi
	movq	-80(%rbp), %rsi
	movq	-72(%rbp), %rdx
	movq	-64(%rbp), %rcx
	movq	-56(%rbp), %r8
	callq	mpi_attr_get_
	movabsq	$.L__unnamed_89, %rdi
	movq	-48(%rbp), %rsi         # 8-byte Reload
	callq	__profile__record_time_end
	addq	$88, %rsp
	popq	%rbx
	popq	%r12
	popq	%r13
	popq	%r14
	popq	%r15
	popq	%rbp
	.cfi_def_cfa %rsp, 8
	retq
.Lfunc_end88:
	.size	MPI_ATTR_GET_, .Lfunc_end88-MPI_ATTR_GET_
	.cfi_endproc
                                        # -- End function
	.globl	mpi_attr_get            # -- Begin function mpi_attr_get
	.p2align	4, 0x90
	.type	mpi_attr_get,@function
mpi_attr_get:                           # @mpi_attr_get
	.cfi_startproc
# %bb.0:                                # %entry
	pushq	%rbp
	.cfi_def_cfa_offset 16
	.cfi_offset %rbp, -16
	movq	%rsp, %rbp
	.cfi_def_cfa_register %rbp
	pushq	%r15
	pushq	%r14
	pushq	%r13
	pushq	%r12
	pushq	%rbx
	subq	$88, %rsp
	.cfi_offset %rbx, -56
	.cfi_offset %r12, -48
	.cfi_offset %r13, -40
	.cfi_offset %r14, -32
	.cfi_offset %r15, -24
	movq	%r8, %r14
	movq	%rcx, %r15
	movq	%rdx, %r12
	movq	%rsi, %r13
	movq	%rdi, %rbx
	movl	$215, __profile__funcID
	callq	__profile__record_time_begin
	movq	%rax, -48(%rbp)         # 8-byte Spill
	movq	%rbx, -88(%rbp)
	movq	%r13, -80(%rbp)
	movq	%r12, -72(%rbp)
	movq	%r15, -64(%rbp)
	movq	%r14, -56(%rbp)
	movq	-88(%rbp), %rdi
	movq	-80(%rbp), %rsi
	movq	-72(%rbp), %rdx
	movq	-64(%rbp), %rcx
	movq	-56(%rbp), %r8
	callq	mpi_attr_get_
	movabsq	$.L__unnamed_90, %rdi
	movq	-48(%rbp), %rsi         # 8-byte Reload
	callq	__profile__record_time_end
	addq	$88, %rsp
	popq	%rbx
	popq	%r12
	popq	%r13
	popq	%r14
	popq	%r15
	popq	%rbp
	.cfi_def_cfa %rsp, 8
	retq
.Lfunc_end89:
	.size	mpi_attr_get, .Lfunc_end89-mpi_attr_get
	.cfi_endproc
                                        # -- End function
	.globl	mpi_attr_put_           # -- Begin function mpi_attr_put_
	.p2align	4, 0x90
	.type	mpi_attr_put_,@function
mpi_attr_put_:                          # @mpi_attr_put_
	.cfi_startproc
# %bb.0:                                # %entry
	pushq	%rbp
	.cfi_def_cfa_offset 16
	.cfi_offset %rbp, -16
	movq	%rsp, %rbp
	.cfi_def_cfa_register %rbp
	pushq	%r15
	pushq	%r14
	pushq	%r13
	pushq	%r12
	pushq	%rbx
	subq	$72, %rsp
	.cfi_offset %rbx, -56
	.cfi_offset %r12, -48
	.cfi_offset %r13, -40
	.cfi_offset %r14, -32
	.cfi_offset %r15, -24
	movq	%rcx, %r14
	movq	%rdx, %r15
	movq	%rsi, %r12
	movq	%rdi, %rbx
	movl	$216, __profile__funcID
	callq	__profile__record_time_begin
	movq	%rax, %r13
	movq	%rbx, -72(%rbp)
	movq	%r12, -64(%rbp)
	movq	%r15, -56(%rbp)
	movq	%r14, -48(%rbp)
	movq	-72(%rbp), %rax
	movl	(%rax), %edi
	movq	-64(%rbp), %rax
	movl	(%rax), %esi
	movq	-56(%rbp), %rdx
	callq	MPI_Attr_put
	movq	-48(%rbp), %rcx
	movl	%eax, (%rcx)
	movabsq	$.L__unnamed_91, %rdi
	movq	%r13, %rsi
	callq	__profile__record_time_end
	addq	$72, %rsp
	popq	%rbx
	popq	%r12
	popq	%r13
	popq	%r14
	popq	%r15
	popq	%rbp
	.cfi_def_cfa %rsp, 8
	retq
.Lfunc_end90:
	.size	mpi_attr_put_, .Lfunc_end90-mpi_attr_put_
	.cfi_endproc
                                        # -- End function
	.globl	mpi_attr_put__          # -- Begin function mpi_attr_put__
	.p2align	4, 0x90
	.type	mpi_attr_put__,@function
mpi_attr_put__:                         # @mpi_attr_put__
	.cfi_startproc
# %bb.0:                                # %entry
	pushq	%rbp
	.cfi_def_cfa_offset 16
	.cfi_offset %rbp, -16
	movq	%rsp, %rbp
	.cfi_def_cfa_register %rbp
	pushq	%r15
	pushq	%r14
	pushq	%r13
	pushq	%r12
	pushq	%rbx
	subq	$72, %rsp
	.cfi_offset %rbx, -56
	.cfi_offset %r12, -48
	.cfi_offset %r13, -40
	.cfi_offset %r14, -32
	.cfi_offset %r15, -24
	movq	%rcx, %r14
	movq	%rdx, %r15
	movq	%rsi, %r12
	movq	%rdi, %rbx
	movl	$217, __profile__funcID
	callq	__profile__record_time_begin
	movq	%rax, %r13
	movq	%rbx, -72(%rbp)
	movq	%r12, -64(%rbp)
	movq	%r15, -56(%rbp)
	movq	%r14, -48(%rbp)
	movq	-72(%rbp), %rdi
	movq	-64(%rbp), %rsi
	movq	-56(%rbp), %rdx
	movq	-48(%rbp), %rcx
	callq	mpi_attr_put_
	movabsq	$.L__unnamed_92, %rdi
	movq	%r13, %rsi
	callq	__profile__record_time_end
	addq	$72, %rsp
	popq	%rbx
	popq	%r12
	popq	%r13
	popq	%r14
	popq	%r15
	popq	%rbp
	.cfi_def_cfa %rsp, 8
	retq
.Lfunc_end91:
	.size	mpi_attr_put__, .Lfunc_end91-mpi_attr_put__
	.cfi_endproc
                                        # -- End function
	.globl	MPI_ATTR_PUT            # -- Begin function MPI_ATTR_PUT
	.p2align	4, 0x90
	.type	MPI_ATTR_PUT,@function
MPI_ATTR_PUT:                           # @MPI_ATTR_PUT
	.cfi_startproc
# %bb.0:                                # %entry
	pushq	%rbp
	.cfi_def_cfa_offset 16
	.cfi_offset %rbp, -16
	movq	%rsp, %rbp
	.cfi_def_cfa_register %rbp
	pushq	%r15
	pushq	%r14
	pushq	%r13
	pushq	%r12
	pushq	%rbx
	subq	$72, %rsp
	.cfi_offset %rbx, -56
	.cfi_offset %r12, -48
	.cfi_offset %r13, -40
	.cfi_offset %r14, -32
	.cfi_offset %r15, -24
	movq	%rcx, %r14
	movq	%rdx, %r15
	movq	%rsi, %r12
	movq	%rdi, %rbx
	movl	$218, __profile__funcID
	callq	__profile__record_time_begin
	movq	%rax, %r13
	movq	%rbx, -72(%rbp)
	movq	%r12, -64(%rbp)
	movq	%r15, -56(%rbp)
	movq	%r14, -48(%rbp)
	movq	-72(%rbp), %rdi
	movq	-64(%rbp), %rsi
	movq	-56(%rbp), %rdx
	movq	-48(%rbp), %rcx
	callq	mpi_attr_put_
	movabsq	$.L__unnamed_93, %rdi
	movq	%r13, %rsi
	callq	__profile__record_time_end
	addq	$72, %rsp
	popq	%rbx
	popq	%r12
	popq	%r13
	popq	%r14
	popq	%r15
	popq	%rbp
	.cfi_def_cfa %rsp, 8
	retq
.Lfunc_end92:
	.size	MPI_ATTR_PUT, .Lfunc_end92-MPI_ATTR_PUT
	.cfi_endproc
                                        # -- End function
	.globl	MPI_ATTR_PUT_           # -- Begin function MPI_ATTR_PUT_
	.p2align	4, 0x90
	.type	MPI_ATTR_PUT_,@function
MPI_ATTR_PUT_:                          # @MPI_ATTR_PUT_
	.cfi_startproc
# %bb.0:                                # %entry
	pushq	%rbp
	.cfi_def_cfa_offset 16
	.cfi_offset %rbp, -16
	movq	%rsp, %rbp
	.cfi_def_cfa_register %rbp
	pushq	%r15
	pushq	%r14
	pushq	%r13
	pushq	%r12
	pushq	%rbx
	subq	$72, %rsp
	.cfi_offset %rbx, -56
	.cfi_offset %r12, -48
	.cfi_offset %r13, -40
	.cfi_offset %r14, -32
	.cfi_offset %r15, -24
	movq	%rcx, %r14
	movq	%rdx, %r15
	movq	%rsi, %r12
	movq	%rdi, %rbx
	movl	$219, __profile__funcID
	callq	__profile__record_time_begin
	movq	%rax, %r13
	movq	%rbx, -72(%rbp)
	movq	%r12, -64(%rbp)
	movq	%r15, -56(%rbp)
	movq	%r14, -48(%rbp)
	movq	-72(%rbp), %rdi
	movq	-64(%rbp), %rsi
	movq	-56(%rbp), %rdx
	movq	-48(%rbp), %rcx
	callq	mpi_attr_put_
	movabsq	$.L__unnamed_94, %rdi
	movq	%r13, %rsi
	callq	__profile__record_time_end
	addq	$72, %rsp
	popq	%rbx
	popq	%r12
	popq	%r13
	popq	%r14
	popq	%r15
	popq	%rbp
	.cfi_def_cfa %rsp, 8
	retq
.Lfunc_end93:
	.size	MPI_ATTR_PUT_, .Lfunc_end93-MPI_ATTR_PUT_
	.cfi_endproc
                                        # -- End function
	.globl	mpi_attr_put            # -- Begin function mpi_attr_put
	.p2align	4, 0x90
	.type	mpi_attr_put,@function
mpi_attr_put:                           # @mpi_attr_put
	.cfi_startproc
# %bb.0:                                # %entry
	pushq	%rbp
	.cfi_def_cfa_offset 16
	.cfi_offset %rbp, -16
	movq	%rsp, %rbp
	.cfi_def_cfa_register %rbp
	pushq	%r15
	pushq	%r14
	pushq	%r13
	pushq	%r12
	pushq	%rbx
	subq	$72, %rsp
	.cfi_offset %rbx, -56
	.cfi_offset %r12, -48
	.cfi_offset %r13, -40
	.cfi_offset %r14, -32
	.cfi_offset %r15, -24
	movq	%rcx, %r14
	movq	%rdx, %r15
	movq	%rsi, %r12
	movq	%rdi, %rbx
	movl	$220, __profile__funcID
	callq	__profile__record_time_begin
	movq	%rax, %r13
	movq	%rbx, -72(%rbp)
	movq	%r12, -64(%rbp)
	movq	%r15, -56(%rbp)
	movq	%r14, -48(%rbp)
	movq	-72(%rbp), %rdi
	movq	-64(%rbp), %rsi
	movq	-56(%rbp), %rdx
	movq	-48(%rbp), %rcx
	callq	mpi_attr_put_
	movabsq	$.L__unnamed_95, %rdi
	movq	%r13, %rsi
	callq	__profile__record_time_end
	addq	$72, %rsp
	popq	%rbx
	popq	%r12
	popq	%r13
	popq	%r14
	popq	%r15
	popq	%rbp
	.cfi_def_cfa %rsp, 8
	retq
.Lfunc_end94:
	.size	mpi_attr_put, .Lfunc_end94-mpi_attr_put
	.cfi_endproc
                                        # -- End function
	.globl	mpi_comm_compare_       # -- Begin function mpi_comm_compare_
	.p2align	4, 0x90
	.type	mpi_comm_compare_,@function
mpi_comm_compare_:                      # @mpi_comm_compare_
	.cfi_startproc
# %bb.0:                                # %entry
	pushq	%rbp
	.cfi_def_cfa_offset 16
	.cfi_offset %rbp, -16
	movq	%rsp, %rbp
	.cfi_def_cfa_register %rbp
	pushq	%r15
	pushq	%r14
	pushq	%r13
	pushq	%r12
	pushq	%rbx
	subq	$72, %rsp
	.cfi_offset %rbx, -56
	.cfi_offset %r12, -48
	.cfi_offset %r13, -40
	.cfi_offset %r14, -32
	.cfi_offset %r15, -24
	movq	%rcx, %r14
	movq	%rdx, %r15
	movq	%rsi, %r12
	movq	%rdi, %rbx
	movl	$221, __profile__funcID
	callq	__profile__record_time_begin
	movq	%rax, %r13
	movq	%rbx, -72(%rbp)
	movq	%r12, -64(%rbp)
	movq	%r15, -56(%rbp)
	movq	%r14, -48(%rbp)
	movq	-72(%rbp), %rax
	movl	(%rax), %edi
	movq	-64(%rbp), %rax
	movl	(%rax), %esi
	movq	-56(%rbp), %rdx
	callq	MPI_Comm_compare
	movq	-48(%rbp), %rcx
	movl	%eax, (%rcx)
	movabsq	$.L__unnamed_96, %rdi
	movq	%r13, %rsi
	callq	__profile__record_time_end
	addq	$72, %rsp
	popq	%rbx
	popq	%r12
	popq	%r13
	popq	%r14
	popq	%r15
	popq	%rbp
	.cfi_def_cfa %rsp, 8
	retq
.Lfunc_end95:
	.size	mpi_comm_compare_, .Lfunc_end95-mpi_comm_compare_
	.cfi_endproc
                                        # -- End function
	.globl	mpi_comm_compare__      # -- Begin function mpi_comm_compare__
	.p2align	4, 0x90
	.type	mpi_comm_compare__,@function
mpi_comm_compare__:                     # @mpi_comm_compare__
	.cfi_startproc
# %bb.0:                                # %entry
	pushq	%rbp
	.cfi_def_cfa_offset 16
	.cfi_offset %rbp, -16
	movq	%rsp, %rbp
	.cfi_def_cfa_register %rbp
	pushq	%r15
	pushq	%r14
	pushq	%r13
	pushq	%r12
	pushq	%rbx
	subq	$72, %rsp
	.cfi_offset %rbx, -56
	.cfi_offset %r12, -48
	.cfi_offset %r13, -40
	.cfi_offset %r14, -32
	.cfi_offset %r15, -24
	movq	%rcx, %r14
	movq	%rdx, %r15
	movq	%rsi, %r12
	movq	%rdi, %rbx
	movl	$222, __profile__funcID
	callq	__profile__record_time_begin
	movq	%rax, %r13
	movq	%rbx, -72(%rbp)
	movq	%r12, -64(%rbp)
	movq	%r15, -56(%rbp)
	movq	%r14, -48(%rbp)
	movq	-72(%rbp), %rdi
	movq	-64(%rbp), %rsi
	movq	-56(%rbp), %rdx
	movq	-48(%rbp), %rcx
	callq	mpi_comm_compare_
	movabsq	$.L__unnamed_97, %rdi
	movq	%r13, %rsi
	callq	__profile__record_time_end
	addq	$72, %rsp
	popq	%rbx
	popq	%r12
	popq	%r13
	popq	%r14
	popq	%r15
	popq	%rbp
	.cfi_def_cfa %rsp, 8
	retq
.Lfunc_end96:
	.size	mpi_comm_compare__, .Lfunc_end96-mpi_comm_compare__
	.cfi_endproc
                                        # -- End function
	.globl	MPI_COMM_COMPARE        # -- Begin function MPI_COMM_COMPARE
	.p2align	4, 0x90
	.type	MPI_COMM_COMPARE,@function
MPI_COMM_COMPARE:                       # @MPI_COMM_COMPARE
	.cfi_startproc
# %bb.0:                                # %entry
	pushq	%rbp
	.cfi_def_cfa_offset 16
	.cfi_offset %rbp, -16
	movq	%rsp, %rbp
	.cfi_def_cfa_register %rbp
	pushq	%r15
	pushq	%r14
	pushq	%r13
	pushq	%r12
	pushq	%rbx
	subq	$72, %rsp
	.cfi_offset %rbx, -56
	.cfi_offset %r12, -48
	.cfi_offset %r13, -40
	.cfi_offset %r14, -32
	.cfi_offset %r15, -24
	movq	%rcx, %r14
	movq	%rdx, %r15
	movq	%rsi, %r12
	movq	%rdi, %rbx
	movl	$223, __profile__funcID
	callq	__profile__record_time_begin
	movq	%rax, %r13
	movq	%rbx, -72(%rbp)
	movq	%r12, -64(%rbp)
	movq	%r15, -56(%rbp)
	movq	%r14, -48(%rbp)
	movq	-72(%rbp), %rdi
	movq	-64(%rbp), %rsi
	movq	-56(%rbp), %rdx
	movq	-48(%rbp), %rcx
	callq	mpi_comm_compare_
	movabsq	$.L__unnamed_98, %rdi
	movq	%r13, %rsi
	callq	__profile__record_time_end
	addq	$72, %rsp
	popq	%rbx
	popq	%r12
	popq	%r13
	popq	%r14
	popq	%r15
	popq	%rbp
	.cfi_def_cfa %rsp, 8
	retq
.Lfunc_end97:
	.size	MPI_COMM_COMPARE, .Lfunc_end97-MPI_COMM_COMPARE
	.cfi_endproc
                                        # -- End function
	.globl	MPI_COMM_COMPARE_       # -- Begin function MPI_COMM_COMPARE_
	.p2align	4, 0x90
	.type	MPI_COMM_COMPARE_,@function
MPI_COMM_COMPARE_:                      # @MPI_COMM_COMPARE_
	.cfi_startproc
# %bb.0:                                # %entry
	pushq	%rbp
	.cfi_def_cfa_offset 16
	.cfi_offset %rbp, -16
	movq	%rsp, %rbp
	.cfi_def_cfa_register %rbp
	pushq	%r15
	pushq	%r14
	pushq	%r13
	pushq	%r12
	pushq	%rbx
	subq	$72, %rsp
	.cfi_offset %rbx, -56
	.cfi_offset %r12, -48
	.cfi_offset %r13, -40
	.cfi_offset %r14, -32
	.cfi_offset %r15, -24
	movq	%rcx, %r14
	movq	%rdx, %r15
	movq	%rsi, %r12
	movq	%rdi, %rbx
	movl	$224, __profile__funcID
	callq	__profile__record_time_begin
	movq	%rax, %r13
	movq	%rbx, -72(%rbp)
	movq	%r12, -64(%rbp)
	movq	%r15, -56(%rbp)
	movq	%r14, -48(%rbp)
	movq	-72(%rbp), %rdi
	movq	-64(%rbp), %rsi
	movq	-56(%rbp), %rdx
	movq	-48(%rbp), %rcx
	callq	mpi_comm_compare_
	movabsq	$.L__unnamed_99, %rdi
	movq	%r13, %rsi
	callq	__profile__record_time_end
	addq	$72, %rsp
	popq	%rbx
	popq	%r12
	popq	%r13
	popq	%r14
	popq	%r15
	popq	%rbp
	.cfi_def_cfa %rsp, 8
	retq
.Lfunc_end98:
	.size	MPI_COMM_COMPARE_, .Lfunc_end98-MPI_COMM_COMPARE_
	.cfi_endproc
                                        # -- End function
	.globl	mpi_comm_compare        # -- Begin function mpi_comm_compare
	.p2align	4, 0x90
	.type	mpi_comm_compare,@function
mpi_comm_compare:                       # @mpi_comm_compare
	.cfi_startproc
# %bb.0:                                # %entry
	pushq	%rbp
	.cfi_def_cfa_offset 16
	.cfi_offset %rbp, -16
	movq	%rsp, %rbp
	.cfi_def_cfa_register %rbp
	pushq	%r15
	pushq	%r14
	pushq	%r13
	pushq	%r12
	pushq	%rbx
	subq	$72, %rsp
	.cfi_offset %rbx, -56
	.cfi_offset %r12, -48
	.cfi_offset %r13, -40
	.cfi_offset %r14, -32
	.cfi_offset %r15, -24
	movq	%rcx, %r14
	movq	%rdx, %r15
	movq	%rsi, %r12
	movq	%rdi, %rbx
	movl	$225, __profile__funcID
	callq	__profile__record_time_begin
	movq	%rax, %r13
	movq	%rbx, -72(%rbp)
	movq	%r12, -64(%rbp)
	movq	%r15, -56(%rbp)
	movq	%r14, -48(%rbp)
	movq	-72(%rbp), %rdi
	movq	-64(%rbp), %rsi
	movq	-56(%rbp), %rdx
	movq	-48(%rbp), %rcx
	callq	mpi_comm_compare_
	movabsq	$.L__unnamed_100, %rdi
	movq	%r13, %rsi
	callq	__profile__record_time_end
	addq	$72, %rsp
	popq	%rbx
	popq	%r12
	popq	%r13
	popq	%r14
	popq	%r15
	popq	%rbp
	.cfi_def_cfa %rsp, 8
	retq
.Lfunc_end99:
	.size	mpi_comm_compare, .Lfunc_end99-mpi_comm_compare
	.cfi_endproc
                                        # -- End function
	.globl	mpi_comm_create_        # -- Begin function mpi_comm_create_
	.p2align	4, 0x90
	.type	mpi_comm_create_,@function
mpi_comm_create_:                       # @mpi_comm_create_
	.cfi_startproc
# %bb.0:                                # %entry
	pushq	%rbp
	.cfi_def_cfa_offset 16
	.cfi_offset %rbp, -16
	movq	%rsp, %rbp
	.cfi_def_cfa_register %rbp
	pushq	%r15
	pushq	%r14
	pushq	%r13
	pushq	%r12
	pushq	%rbx
	subq	$88, %rsp
	.cfi_offset %rbx, -56
	.cfi_offset %r12, -48
	.cfi_offset %r13, -40
	.cfi_offset %r14, -32
	.cfi_offset %r15, -24
	movq	%rcx, %r14
	movq	%rdx, %r15
	movq	%rsi, %r12
	movq	%rdi, %rbx
	movl	$226, __profile__funcID
	callq	__profile__record_time_begin
	movq	%rax, %r13
	movq	%rbx, -80(%rbp)
	movq	%r12, -72(%rbp)
	movq	%r15, -64(%rbp)
	movq	%r14, -56(%rbp)
	movq	-80(%rbp), %rax
	movl	(%rax), %edi
	movq	-72(%rbp), %rax
	movl	(%rax), %esi
	leaq	-44(%rbp), %rdx
	callq	MPI_Comm_create
	movq	-56(%rbp), %rcx
	movl	%eax, (%rcx)
	movl	-44(%rbp), %eax
	movq	-64(%rbp), %rcx
	movl	%eax, (%rcx)
	movabsq	$.L__unnamed_101, %rdi
	movq	%r13, %rsi
	callq	__profile__record_time_end
	addq	$88, %rsp
	popq	%rbx
	popq	%r12
	popq	%r13
	popq	%r14
	popq	%r15
	popq	%rbp
	.cfi_def_cfa %rsp, 8
	retq
.Lfunc_end100:
	.size	mpi_comm_create_, .Lfunc_end100-mpi_comm_create_
	.cfi_endproc
                                        # -- End function
	.globl	mpi_comm_create__       # -- Begin function mpi_comm_create__
	.p2align	4, 0x90
	.type	mpi_comm_create__,@function
mpi_comm_create__:                      # @mpi_comm_create__
	.cfi_startproc
# %bb.0:                                # %entry
	pushq	%rbp
	.cfi_def_cfa_offset 16
	.cfi_offset %rbp, -16
	movq	%rsp, %rbp
	.cfi_def_cfa_register %rbp
	pushq	%r15
	pushq	%r14
	pushq	%r13
	pushq	%r12
	pushq	%rbx
	subq	$72, %rsp
	.cfi_offset %rbx, -56
	.cfi_offset %r12, -48
	.cfi_offset %r13, -40
	.cfi_offset %r14, -32
	.cfi_offset %r15, -24
	movq	%rcx, %r14
	movq	%rdx, %r15
	movq	%rsi, %r12
	movq	%rdi, %rbx
	movl	$227, __profile__funcID
	callq	__profile__record_time_begin
	movq	%rax, %r13
	movq	%rbx, -72(%rbp)
	movq	%r12, -64(%rbp)
	movq	%r15, -56(%rbp)
	movq	%r14, -48(%rbp)
	movq	-72(%rbp), %rdi
	movq	-64(%rbp), %rsi
	movq	-56(%rbp), %rdx
	movq	-48(%rbp), %rcx
	callq	mpi_comm_create_
	movabsq	$.L__unnamed_102, %rdi
	movq	%r13, %rsi
	callq	__profile__record_time_end
	addq	$72, %rsp
	popq	%rbx
	popq	%r12
	popq	%r13
	popq	%r14
	popq	%r15
	popq	%rbp
	.cfi_def_cfa %rsp, 8
	retq
.Lfunc_end101:
	.size	mpi_comm_create__, .Lfunc_end101-mpi_comm_create__
	.cfi_endproc
                                        # -- End function
	.globl	MPI_COMM_CREATE         # -- Begin function MPI_COMM_CREATE
	.p2align	4, 0x90
	.type	MPI_COMM_CREATE,@function
MPI_COMM_CREATE:                        # @MPI_COMM_CREATE
	.cfi_startproc
# %bb.0:                                # %entry
	pushq	%rbp
	.cfi_def_cfa_offset 16
	.cfi_offset %rbp, -16
	movq	%rsp, %rbp
	.cfi_def_cfa_register %rbp
	pushq	%r15
	pushq	%r14
	pushq	%r13
	pushq	%r12
	pushq	%rbx
	subq	$72, %rsp
	.cfi_offset %rbx, -56
	.cfi_offset %r12, -48
	.cfi_offset %r13, -40
	.cfi_offset %r14, -32
	.cfi_offset %r15, -24
	movq	%rcx, %r14
	movq	%rdx, %r15
	movq	%rsi, %r12
	movq	%rdi, %rbx
	movl	$228, __profile__funcID
	callq	__profile__record_time_begin
	movq	%rax, %r13
	movq	%rbx, -72(%rbp)
	movq	%r12, -64(%rbp)
	movq	%r15, -56(%rbp)
	movq	%r14, -48(%rbp)
	movq	-72(%rbp), %rdi
	movq	-64(%rbp), %rsi
	movq	-56(%rbp), %rdx
	movq	-48(%rbp), %rcx
	callq	mpi_comm_create_
	movabsq	$.L__unnamed_103, %rdi
	movq	%r13, %rsi
	callq	__profile__record_time_end
	addq	$72, %rsp
	popq	%rbx
	popq	%r12
	popq	%r13
	popq	%r14
	popq	%r15
	popq	%rbp
	.cfi_def_cfa %rsp, 8
	retq
.Lfunc_end102:
	.size	MPI_COMM_CREATE, .Lfunc_end102-MPI_COMM_CREATE
	.cfi_endproc
                                        # -- End function
	.globl	MPI_COMM_CREATE_        # -- Begin function MPI_COMM_CREATE_
	.p2align	4, 0x90
	.type	MPI_COMM_CREATE_,@function
MPI_COMM_CREATE_:                       # @MPI_COMM_CREATE_
	.cfi_startproc
# %bb.0:                                # %entry
	pushq	%rbp
	.cfi_def_cfa_offset 16
	.cfi_offset %rbp, -16
	movq	%rsp, %rbp
	.cfi_def_cfa_register %rbp
	pushq	%r15
	pushq	%r14
	pushq	%r13
	pushq	%r12
	pushq	%rbx
	subq	$72, %rsp
	.cfi_offset %rbx, -56
	.cfi_offset %r12, -48
	.cfi_offset %r13, -40
	.cfi_offset %r14, -32
	.cfi_offset %r15, -24
	movq	%rcx, %r14
	movq	%rdx, %r15
	movq	%rsi, %r12
	movq	%rdi, %rbx
	movl	$229, __profile__funcID
	callq	__profile__record_time_begin
	movq	%rax, %r13
	movq	%rbx, -72(%rbp)
	movq	%r12, -64(%rbp)
	movq	%r15, -56(%rbp)
	movq	%r14, -48(%rbp)
	movq	-72(%rbp), %rdi
	movq	-64(%rbp), %rsi
	movq	-56(%rbp), %rdx
	movq	-48(%rbp), %rcx
	callq	mpi_comm_create_
	movabsq	$.L__unnamed_104, %rdi
	movq	%r13, %rsi
	callq	__profile__record_time_end
	addq	$72, %rsp
	popq	%rbx
	popq	%r12
	popq	%r13
	popq	%r14
	popq	%r15
	popq	%rbp
	.cfi_def_cfa %rsp, 8
	retq
.Lfunc_end103:
	.size	MPI_COMM_CREATE_, .Lfunc_end103-MPI_COMM_CREATE_
	.cfi_endproc
                                        # -- End function
	.globl	mpi_comm_create         # -- Begin function mpi_comm_create
	.p2align	4, 0x90
	.type	mpi_comm_create,@function
mpi_comm_create:                        # @mpi_comm_create
	.cfi_startproc
# %bb.0:                                # %entry
	pushq	%rbp
	.cfi_def_cfa_offset 16
	.cfi_offset %rbp, -16
	movq	%rsp, %rbp
	.cfi_def_cfa_register %rbp
	pushq	%r15
	pushq	%r14
	pushq	%r13
	pushq	%r12
	pushq	%rbx
	subq	$72, %rsp
	.cfi_offset %rbx, -56
	.cfi_offset %r12, -48
	.cfi_offset %r13, -40
	.cfi_offset %r14, -32
	.cfi_offset %r15, -24
	movq	%rcx, %r14
	movq	%rdx, %r15
	movq	%rsi, %r12
	movq	%rdi, %rbx
	movl	$230, __profile__funcID
	callq	__profile__record_time_begin
	movq	%rax, %r13
	movq	%rbx, -72(%rbp)
	movq	%r12, -64(%rbp)
	movq	%r15, -56(%rbp)
	movq	%r14, -48(%rbp)
	movq	-72(%rbp), %rdi
	movq	-64(%rbp), %rsi
	movq	-56(%rbp), %rdx
	movq	-48(%rbp), %rcx
	callq	mpi_comm_create_
	movabsq	$.L__unnamed_105, %rdi
	movq	%r13, %rsi
	callq	__profile__record_time_end
	addq	$72, %rsp
	popq	%rbx
	popq	%r12
	popq	%r13
	popq	%r14
	popq	%r15
	popq	%rbp
	.cfi_def_cfa %rsp, 8
	retq
.Lfunc_end104:
	.size	mpi_comm_create, .Lfunc_end104-mpi_comm_create
	.cfi_endproc
                                        # -- End function
	.globl	mpi_comm_dup_           # -- Begin function mpi_comm_dup_
	.p2align	4, 0x90
	.type	mpi_comm_dup_,@function
mpi_comm_dup_:                          # @mpi_comm_dup_
	.cfi_startproc
# %bb.0:                                # %entry
	pushq	%rbp
	.cfi_def_cfa_offset 16
	.cfi_offset %rbp, -16
	movq	%rsp, %rbp
	.cfi_def_cfa_register %rbp
	pushq	%r15
	pushq	%r14
	pushq	%r12
	pushq	%rbx
	subq	$80, %rsp
	.cfi_offset %rbx, -48
	.cfi_offset %r12, -40
	.cfi_offset %r14, -32
	.cfi_offset %r15, -24
	movq	%rdx, %r14
	movq	%rsi, %r15
	movq	%rdi, %rbx
	movl	$231, __profile__funcID
	callq	__profile__record_time_begin
	movq	%rax, %r12
	movq	%rbx, -64(%rbp)
	movq	%r15, -56(%rbp)
	movq	%r14, -48(%rbp)
	movq	-64(%rbp), %rax
	movl	(%rax), %edi
	leaq	-36(%rbp), %rsi
	callq	MPI_Comm_dup
	movq	-48(%rbp), %rcx
	movl	%eax, (%rcx)
	movl	-36(%rbp), %eax
	movq	-56(%rbp), %rcx
	movl	%eax, (%rcx)
	movabsq	$.L__unnamed_106, %rdi
	movq	%r12, %rsi
	callq	__profile__record_time_end
	addq	$80, %rsp
	popq	%rbx
	popq	%r12
	popq	%r14
	popq	%r15
	popq	%rbp
	.cfi_def_cfa %rsp, 8
	retq
.Lfunc_end105:
	.size	mpi_comm_dup_, .Lfunc_end105-mpi_comm_dup_
	.cfi_endproc
                                        # -- End function
	.globl	mpi_comm_dup__          # -- Begin function mpi_comm_dup__
	.p2align	4, 0x90
	.type	mpi_comm_dup__,@function
mpi_comm_dup__:                         # @mpi_comm_dup__
	.cfi_startproc
# %bb.0:                                # %entry
	pushq	%rbp
	.cfi_def_cfa_offset 16
	.cfi_offset %rbp, -16
	movq	%rsp, %rbp
	.cfi_def_cfa_register %rbp
	pushq	%r15
	pushq	%r14
	pushq	%r12
	pushq	%rbx
	subq	$64, %rsp
	.cfi_offset %rbx, -48
	.cfi_offset %r12, -40
	.cfi_offset %r14, -32
	.cfi_offset %r15, -24
	movq	%rdx, %r14
	movq	%rsi, %r15
	movq	%rdi, %rbx
	movl	$232, __profile__funcID
	callq	__profile__record_time_begin
	movq	%rax, %r12
	movq	%rbx, -56(%rbp)
	movq	%r15, -48(%rbp)
	movq	%r14, -40(%rbp)
	movq	-56(%rbp), %rdi
	movq	-48(%rbp), %rsi
	movq	-40(%rbp), %rdx
	callq	mpi_comm_dup_
	movabsq	$.L__unnamed_107, %rdi
	movq	%r12, %rsi
	callq	__profile__record_time_end
	addq	$64, %rsp
	popq	%rbx
	popq	%r12
	popq	%r14
	popq	%r15
	popq	%rbp
	.cfi_def_cfa %rsp, 8
	retq
.Lfunc_end106:
	.size	mpi_comm_dup__, .Lfunc_end106-mpi_comm_dup__
	.cfi_endproc
                                        # -- End function
	.globl	MPI_COMM_DUP            # -- Begin function MPI_COMM_DUP
	.p2align	4, 0x90
	.type	MPI_COMM_DUP,@function
MPI_COMM_DUP:                           # @MPI_COMM_DUP
	.cfi_startproc
# %bb.0:                                # %entry
	pushq	%rbp
	.cfi_def_cfa_offset 16
	.cfi_offset %rbp, -16
	movq	%rsp, %rbp
	.cfi_def_cfa_register %rbp
	pushq	%r15
	pushq	%r14
	pushq	%r12
	pushq	%rbx
	subq	$64, %rsp
	.cfi_offset %rbx, -48
	.cfi_offset %r12, -40
	.cfi_offset %r14, -32
	.cfi_offset %r15, -24
	movq	%rdx, %r14
	movq	%rsi, %r15
	movq	%rdi, %rbx
	movl	$233, __profile__funcID
	callq	__profile__record_time_begin
	movq	%rax, %r12
	movq	%rbx, -56(%rbp)
	movq	%r15, -48(%rbp)
	movq	%r14, -40(%rbp)
	movq	-56(%rbp), %rdi
	movq	-48(%rbp), %rsi
	movq	-40(%rbp), %rdx
	callq	mpi_comm_dup_
	movabsq	$.L__unnamed_108, %rdi
	movq	%r12, %rsi
	callq	__profile__record_time_end
	addq	$64, %rsp
	popq	%rbx
	popq	%r12
	popq	%r14
	popq	%r15
	popq	%rbp
	.cfi_def_cfa %rsp, 8
	retq
.Lfunc_end107:
	.size	MPI_COMM_DUP, .Lfunc_end107-MPI_COMM_DUP
	.cfi_endproc
                                        # -- End function
	.globl	MPI_COMM_DUP_           # -- Begin function MPI_COMM_DUP_
	.p2align	4, 0x90
	.type	MPI_COMM_DUP_,@function
MPI_COMM_DUP_:                          # @MPI_COMM_DUP_
	.cfi_startproc
# %bb.0:                                # %entry
	pushq	%rbp
	.cfi_def_cfa_offset 16
	.cfi_offset %rbp, -16
	movq	%rsp, %rbp
	.cfi_def_cfa_register %rbp
	pushq	%r15
	pushq	%r14
	pushq	%r12
	pushq	%rbx
	subq	$64, %rsp
	.cfi_offset %rbx, -48
	.cfi_offset %r12, -40
	.cfi_offset %r14, -32
	.cfi_offset %r15, -24
	movq	%rdx, %r14
	movq	%rsi, %r15
	movq	%rdi, %rbx
	movl	$234, __profile__funcID
	callq	__profile__record_time_begin
	movq	%rax, %r12
	movq	%rbx, -56(%rbp)
	movq	%r15, -48(%rbp)
	movq	%r14, -40(%rbp)
	movq	-56(%rbp), %rdi
	movq	-48(%rbp), %rsi
	movq	-40(%rbp), %rdx
	callq	mpi_comm_dup_
	movabsq	$.L__unnamed_109, %rdi
	movq	%r12, %rsi
	callq	__profile__record_time_end
	addq	$64, %rsp
	popq	%rbx
	popq	%r12
	popq	%r14
	popq	%r15
	popq	%rbp
	.cfi_def_cfa %rsp, 8
	retq
.Lfunc_end108:
	.size	MPI_COMM_DUP_, .Lfunc_end108-MPI_COMM_DUP_
	.cfi_endproc
                                        # -- End function
	.globl	mpi_comm_dup            # -- Begin function mpi_comm_dup
	.p2align	4, 0x90
	.type	mpi_comm_dup,@function
mpi_comm_dup:                           # @mpi_comm_dup
	.cfi_startproc
# %bb.0:                                # %entry
	pushq	%rbp
	.cfi_def_cfa_offset 16
	.cfi_offset %rbp, -16
	movq	%rsp, %rbp
	.cfi_def_cfa_register %rbp
	pushq	%r15
	pushq	%r14
	pushq	%r12
	pushq	%rbx
	subq	$64, %rsp
	.cfi_offset %rbx, -48
	.cfi_offset %r12, -40
	.cfi_offset %r14, -32
	.cfi_offset %r15, -24
	movq	%rdx, %r14
	movq	%rsi, %r15
	movq	%rdi, %rbx
	movl	$235, __profile__funcID
	callq	__profile__record_time_begin
	movq	%rax, %r12
	movq	%rbx, -56(%rbp)
	movq	%r15, -48(%rbp)
	movq	%r14, -40(%rbp)
	movq	-56(%rbp), %rdi
	movq	-48(%rbp), %rsi
	movq	-40(%rbp), %rdx
	callq	mpi_comm_dup_
	movabsq	$.L__unnamed_110, %rdi
	movq	%r12, %rsi
	callq	__profile__record_time_end
	addq	$64, %rsp
	popq	%rbx
	popq	%r12
	popq	%r14
	popq	%r15
	popq	%rbp
	.cfi_def_cfa %rsp, 8
	retq
.Lfunc_end109:
	.size	mpi_comm_dup, .Lfunc_end109-mpi_comm_dup
	.cfi_endproc
                                        # -- End function
	.globl	mpi_comm_free_          # -- Begin function mpi_comm_free_
	.p2align	4, 0x90
	.type	mpi_comm_free_,@function
mpi_comm_free_:                         # @mpi_comm_free_
	.cfi_startproc
# %bb.0:                                # %entry
	pushq	%rbp
	.cfi_def_cfa_offset 16
	.cfi_offset %rbp, -16
	movq	%rsp, %rbp
	.cfi_def_cfa_register %rbp
	pushq	%r15
	pushq	%r14
	pushq	%rbx
	subq	$72, %rsp
	.cfi_offset %rbx, -40
	.cfi_offset %r14, -32
	.cfi_offset %r15, -24
	movq	%rsi, %r14
	movq	%rdi, %rbx
	movl	$236, __profile__funcID
	callq	__profile__record_time_begin
	movq	%rax, %r15
	movq	%rbx, -40(%rbp)
	movq	%r14, -48(%rbp)
	movq	-40(%rbp), %rax
	movl	(%rax), %eax
	movl	%eax, -28(%rbp)
	leaq	-28(%rbp), %rdi
	callq	MPI_Comm_free
	movq	-48(%rbp), %rcx
	movl	%eax, (%rcx)
	movl	-28(%rbp), %eax
	movq	-40(%rbp), %rcx
	movl	%eax, (%rcx)
	movabsq	$.L__unnamed_111, %rdi
	movq	%r15, %rsi
	callq	__profile__record_time_end
	addq	$72, %rsp
	popq	%rbx
	popq	%r14
	popq	%r15
	popq	%rbp
	.cfi_def_cfa %rsp, 8
	retq
.Lfunc_end110:
	.size	mpi_comm_free_, .Lfunc_end110-mpi_comm_free_
	.cfi_endproc
                                        # -- End function
	.globl	mpi_comm_free__         # -- Begin function mpi_comm_free__
	.p2align	4, 0x90
	.type	mpi_comm_free__,@function
mpi_comm_free__:                        # @mpi_comm_free__
	.cfi_startproc
# %bb.0:                                # %entry
	pushq	%rbp
	.cfi_def_cfa_offset 16
	.cfi_offset %rbp, -16
	movq	%rsp, %rbp
	.cfi_def_cfa_register %rbp
	pushq	%r15
	pushq	%r14
	pushq	%rbx
	subq	$56, %rsp
	.cfi_offset %rbx, -40
	.cfi_offset %r14, -32
	.cfi_offset %r15, -24
	movq	%rsi, %r14
	movq	%rdi, %rbx
	movl	$237, __profile__funcID
	callq	__profile__record_time_begin
	movq	%rax, %r15
	movq	%rbx, -40(%rbp)
	movq	%r14, -32(%rbp)
	movq	-40(%rbp), %rdi
	movq	-32(%rbp), %rsi
	callq	mpi_comm_free_
	movabsq	$.L__unnamed_112, %rdi
	movq	%r15, %rsi
	callq	__profile__record_time_end
	addq	$56, %rsp
	popq	%rbx
	popq	%r14
	popq	%r15
	popq	%rbp
	.cfi_def_cfa %rsp, 8
	retq
.Lfunc_end111:
	.size	mpi_comm_free__, .Lfunc_end111-mpi_comm_free__
	.cfi_endproc
                                        # -- End function
	.globl	MPI_COMM_FREE           # -- Begin function MPI_COMM_FREE
	.p2align	4, 0x90
	.type	MPI_COMM_FREE,@function
MPI_COMM_FREE:                          # @MPI_COMM_FREE
	.cfi_startproc
# %bb.0:                                # %entry
	pushq	%rbp
	.cfi_def_cfa_offset 16
	.cfi_offset %rbp, -16
	movq	%rsp, %rbp
	.cfi_def_cfa_register %rbp
	pushq	%r15
	pushq	%r14
	pushq	%rbx
	subq	$56, %rsp
	.cfi_offset %rbx, -40
	.cfi_offset %r14, -32
	.cfi_offset %r15, -24
	movq	%rsi, %r14
	movq	%rdi, %rbx
	movl	$238, __profile__funcID
	callq	__profile__record_time_begin
	movq	%rax, %r15
	movq	%rbx, -40(%rbp)
	movq	%r14, -32(%rbp)
	movq	-40(%rbp), %rdi
	movq	-32(%rbp), %rsi
	callq	mpi_comm_free_
	movabsq	$.L__unnamed_113, %rdi
	movq	%r15, %rsi
	callq	__profile__record_time_end
	addq	$56, %rsp
	popq	%rbx
	popq	%r14
	popq	%r15
	popq	%rbp
	.cfi_def_cfa %rsp, 8
	retq
.Lfunc_end112:
	.size	MPI_COMM_FREE, .Lfunc_end112-MPI_COMM_FREE
	.cfi_endproc
                                        # -- End function
	.globl	MPI_COMM_FREE_          # -- Begin function MPI_COMM_FREE_
	.p2align	4, 0x90
	.type	MPI_COMM_FREE_,@function
MPI_COMM_FREE_:                         # @MPI_COMM_FREE_
	.cfi_startproc
# %bb.0:                                # %entry
	pushq	%rbp
	.cfi_def_cfa_offset 16
	.cfi_offset %rbp, -16
	movq	%rsp, %rbp
	.cfi_def_cfa_register %rbp
	pushq	%r15
	pushq	%r14
	pushq	%rbx
	subq	$56, %rsp
	.cfi_offset %rbx, -40
	.cfi_offset %r14, -32
	.cfi_offset %r15, -24
	movq	%rsi, %r14
	movq	%rdi, %rbx
	movl	$239, __profile__funcID
	callq	__profile__record_time_begin
	movq	%rax, %r15
	movq	%rbx, -40(%rbp)
	movq	%r14, -32(%rbp)
	movq	-40(%rbp), %rdi
	movq	-32(%rbp), %rsi
	callq	mpi_comm_free_
	movabsq	$.L__unnamed_114, %rdi
	movq	%r15, %rsi
	callq	__profile__record_time_end
	addq	$56, %rsp
	popq	%rbx
	popq	%r14
	popq	%r15
	popq	%rbp
	.cfi_def_cfa %rsp, 8
	retq
.Lfunc_end113:
	.size	MPI_COMM_FREE_, .Lfunc_end113-MPI_COMM_FREE_
	.cfi_endproc
                                        # -- End function
	.globl	mpi_comm_free           # -- Begin function mpi_comm_free
	.p2align	4, 0x90
	.type	mpi_comm_free,@function
mpi_comm_free:                          # @mpi_comm_free
	.cfi_startproc
# %bb.0:                                # %entry
	pushq	%rbp
	.cfi_def_cfa_offset 16
	.cfi_offset %rbp, -16
	movq	%rsp, %rbp
	.cfi_def_cfa_register %rbp
	pushq	%r15
	pushq	%r14
	pushq	%rbx
	subq	$56, %rsp
	.cfi_offset %rbx, -40
	.cfi_offset %r14, -32
	.cfi_offset %r15, -24
	movq	%rsi, %r14
	movq	%rdi, %rbx
	movl	$240, __profile__funcID
	callq	__profile__record_time_begin
	movq	%rax, %r15
	movq	%rbx, -40(%rbp)
	movq	%r14, -32(%rbp)
	movq	-40(%rbp), %rdi
	movq	-32(%rbp), %rsi
	callq	mpi_comm_free_
	movabsq	$.L__unnamed_115, %rdi
	movq	%r15, %rsi
	callq	__profile__record_time_end
	addq	$56, %rsp
	popq	%rbx
	popq	%r14
	popq	%r15
	popq	%rbp
	.cfi_def_cfa %rsp, 8
	retq
.Lfunc_end114:
	.size	mpi_comm_free, .Lfunc_end114-mpi_comm_free
	.cfi_endproc
                                        # -- End function
	.globl	mpi_comm_group_         # -- Begin function mpi_comm_group_
	.p2align	4, 0x90
	.type	mpi_comm_group_,@function
mpi_comm_group_:                        # @mpi_comm_group_
	.cfi_startproc
# %bb.0:                                # %entry
	pushq	%rbp
	.cfi_def_cfa_offset 16
	.cfi_offset %rbp, -16
	movq	%rsp, %rbp
	.cfi_def_cfa_register %rbp
	pushq	%r15
	pushq	%r14
	pushq	%r12
	pushq	%rbx
	subq	$80, %rsp
	.cfi_offset %rbx, -48
	.cfi_offset %r12, -40
	.cfi_offset %r14, -32
	.cfi_offset %r15, -24
	movq	%rdx, %r14
	movq	%rsi, %r15
	movq	%rdi, %rbx
	movl	$241, __profile__funcID
	callq	__profile__record_time_begin
	movq	%rax, %r12
	movq	%rbx, -64(%rbp)
	movq	%r15, -56(%rbp)
	movq	%r14, -48(%rbp)
	movq	-64(%rbp), %rax
	movl	(%rax), %edi
	leaq	-36(%rbp), %rsi
	callq	MPI_Comm_group
	movq	-48(%rbp), %rcx
	movl	%eax, (%rcx)
	movl	-36(%rbp), %eax
	movq	-56(%rbp), %rcx
	movl	%eax, (%rcx)
	movabsq	$.L__unnamed_116, %rdi
	movq	%r12, %rsi
	callq	__profile__record_time_end
	addq	$80, %rsp
	popq	%rbx
	popq	%r12
	popq	%r14
	popq	%r15
	popq	%rbp
	.cfi_def_cfa %rsp, 8
	retq
.Lfunc_end115:
	.size	mpi_comm_group_, .Lfunc_end115-mpi_comm_group_
	.cfi_endproc
                                        # -- End function
	.globl	mpi_comm_group__        # -- Begin function mpi_comm_group__
	.p2align	4, 0x90
	.type	mpi_comm_group__,@function
mpi_comm_group__:                       # @mpi_comm_group__
	.cfi_startproc
# %bb.0:                                # %entry
	pushq	%rbp
	.cfi_def_cfa_offset 16
	.cfi_offset %rbp, -16
	movq	%rsp, %rbp
	.cfi_def_cfa_register %rbp
	pushq	%r15
	pushq	%r14
	pushq	%r12
	pushq	%rbx
	subq	$64, %rsp
	.cfi_offset %rbx, -48
	.cfi_offset %r12, -40
	.cfi_offset %r14, -32
	.cfi_offset %r15, -24
	movq	%rdx, %r14
	movq	%rsi, %r15
	movq	%rdi, %rbx
	movl	$242, __profile__funcID
	callq	__profile__record_time_begin
	movq	%rax, %r12
	movq	%rbx, -56(%rbp)
	movq	%r15, -48(%rbp)
	movq	%r14, -40(%rbp)
	movq	-56(%rbp), %rdi
	movq	-48(%rbp), %rsi
	movq	-40(%rbp), %rdx
	callq	mpi_comm_group_
	movabsq	$.L__unnamed_117, %rdi
	movq	%r12, %rsi
	callq	__profile__record_time_end
	addq	$64, %rsp
	popq	%rbx
	popq	%r12
	popq	%r14
	popq	%r15
	popq	%rbp
	.cfi_def_cfa %rsp, 8
	retq
.Lfunc_end116:
	.size	mpi_comm_group__, .Lfunc_end116-mpi_comm_group__
	.cfi_endproc
                                        # -- End function
	.globl	MPI_COMM_GROUP          # -- Begin function MPI_COMM_GROUP
	.p2align	4, 0x90
	.type	MPI_COMM_GROUP,@function
MPI_COMM_GROUP:                         # @MPI_COMM_GROUP
	.cfi_startproc
# %bb.0:                                # %entry
	pushq	%rbp
	.cfi_def_cfa_offset 16
	.cfi_offset %rbp, -16
	movq	%rsp, %rbp
	.cfi_def_cfa_register %rbp
	pushq	%r15
	pushq	%r14
	pushq	%r12
	pushq	%rbx
	subq	$64, %rsp
	.cfi_offset %rbx, -48
	.cfi_offset %r12, -40
	.cfi_offset %r14, -32
	.cfi_offset %r15, -24
	movq	%rdx, %r14
	movq	%rsi, %r15
	movq	%rdi, %rbx
	movl	$243, __profile__funcID
	callq	__profile__record_time_begin
	movq	%rax, %r12
	movq	%rbx, -56(%rbp)
	movq	%r15, -48(%rbp)
	movq	%r14, -40(%rbp)
	movq	-56(%rbp), %rdi
	movq	-48(%rbp), %rsi
	movq	-40(%rbp), %rdx
	callq	mpi_comm_group_
	movabsq	$.L__unnamed_118, %rdi
	movq	%r12, %rsi
	callq	__profile__record_time_end
	addq	$64, %rsp
	popq	%rbx
	popq	%r12
	popq	%r14
	popq	%r15
	popq	%rbp
	.cfi_def_cfa %rsp, 8
	retq
.Lfunc_end117:
	.size	MPI_COMM_GROUP, .Lfunc_end117-MPI_COMM_GROUP
	.cfi_endproc
                                        # -- End function
	.globl	MPI_COMM_GROUP_         # -- Begin function MPI_COMM_GROUP_
	.p2align	4, 0x90
	.type	MPI_COMM_GROUP_,@function
MPI_COMM_GROUP_:                        # @MPI_COMM_GROUP_
	.cfi_startproc
# %bb.0:                                # %entry
	pushq	%rbp
	.cfi_def_cfa_offset 16
	.cfi_offset %rbp, -16
	movq	%rsp, %rbp
	.cfi_def_cfa_register %rbp
	pushq	%r15
	pushq	%r14
	pushq	%r12
	pushq	%rbx
	subq	$64, %rsp
	.cfi_offset %rbx, -48
	.cfi_offset %r12, -40
	.cfi_offset %r14, -32
	.cfi_offset %r15, -24
	movq	%rdx, %r14
	movq	%rsi, %r15
	movq	%rdi, %rbx
	movl	$244, __profile__funcID
	callq	__profile__record_time_begin
	movq	%rax, %r12
	movq	%rbx, -56(%rbp)
	movq	%r15, -48(%rbp)
	movq	%r14, -40(%rbp)
	movq	-56(%rbp), %rdi
	movq	-48(%rbp), %rsi
	movq	-40(%rbp), %rdx
	callq	mpi_comm_group_
	movabsq	$.L__unnamed_119, %rdi
	movq	%r12, %rsi
	callq	__profile__record_time_end
	addq	$64, %rsp
	popq	%rbx
	popq	%r12
	popq	%r14
	popq	%r15
	popq	%rbp
	.cfi_def_cfa %rsp, 8
	retq
.Lfunc_end118:
	.size	MPI_COMM_GROUP_, .Lfunc_end118-MPI_COMM_GROUP_
	.cfi_endproc
                                        # -- End function
	.globl	mpi_comm_group          # -- Begin function mpi_comm_group
	.p2align	4, 0x90
	.type	mpi_comm_group,@function
mpi_comm_group:                         # @mpi_comm_group
	.cfi_startproc
# %bb.0:                                # %entry
	pushq	%rbp
	.cfi_def_cfa_offset 16
	.cfi_offset %rbp, -16
	movq	%rsp, %rbp
	.cfi_def_cfa_register %rbp
	pushq	%r15
	pushq	%r14
	pushq	%r12
	pushq	%rbx
	subq	$64, %rsp
	.cfi_offset %rbx, -48
	.cfi_offset %r12, -40
	.cfi_offset %r14, -32
	.cfi_offset %r15, -24
	movq	%rdx, %r14
	movq	%rsi, %r15
	movq	%rdi, %rbx
	movl	$245, __profile__funcID
	callq	__profile__record_time_begin
	movq	%rax, %r12
	movq	%rbx, -56(%rbp)
	movq	%r15, -48(%rbp)
	movq	%r14, -40(%rbp)
	movq	-56(%rbp), %rdi
	movq	-48(%rbp), %rsi
	movq	-40(%rbp), %rdx
	callq	mpi_comm_group_
	movabsq	$.L__unnamed_120, %rdi
	movq	%r12, %rsi
	callq	__profile__record_time_end
	addq	$64, %rsp
	popq	%rbx
	popq	%r12
	popq	%r14
	popq	%r15
	popq	%rbp
	.cfi_def_cfa %rsp, 8
	retq
.Lfunc_end119:
	.size	mpi_comm_group, .Lfunc_end119-mpi_comm_group
	.cfi_endproc
                                        # -- End function
	.globl	mpi_comm_rank_          # -- Begin function mpi_comm_rank_
	.p2align	4, 0x90
	.type	mpi_comm_rank_,@function
mpi_comm_rank_:                         # @mpi_comm_rank_
	.cfi_startproc
# %bb.0:                                # %entry
	pushq	%rbp
	.cfi_def_cfa_offset 16
	.cfi_offset %rbp, -16
	movq	%rsp, %rbp
	.cfi_def_cfa_register %rbp
	pushq	%r15
	pushq	%r14
	pushq	%r12
	pushq	%rbx
	subq	$64, %rsp
	.cfi_offset %rbx, -48
	.cfi_offset %r12, -40
	.cfi_offset %r14, -32
	.cfi_offset %r15, -24
	movq	%rdx, %r14
	movq	%rsi, %r15
	movq	%rdi, %rbx
	movl	$246, __profile__funcID
	callq	__profile__record_time_begin
	movq	%rax, %r12
	movq	%rbx, -56(%rbp)
	movq	%r15, -48(%rbp)
	movq	%r14, -40(%rbp)
	movq	-56(%rbp), %rax
	movl	(%rax), %edi
	movq	-48(%rbp), %rsi
	callq	MPI_Comm_rank
	movq	-40(%rbp), %rcx
	movl	%eax, (%rcx)
	movabsq	$.L__unnamed_121, %rdi
	movq	%r12, %rsi
	callq	__profile__record_time_end
	addq	$64, %rsp
	popq	%rbx
	popq	%r12
	popq	%r14
	popq	%r15
	popq	%rbp
	.cfi_def_cfa %rsp, 8
	retq
.Lfunc_end120:
	.size	mpi_comm_rank_, .Lfunc_end120-mpi_comm_rank_
	.cfi_endproc
                                        # -- End function
	.globl	mpi_comm_rank__         # -- Begin function mpi_comm_rank__
	.p2align	4, 0x90
	.type	mpi_comm_rank__,@function
mpi_comm_rank__:                        # @mpi_comm_rank__
	.cfi_startproc
# %bb.0:                                # %entry
	pushq	%rbp
	.cfi_def_cfa_offset 16
	.cfi_offset %rbp, -16
	movq	%rsp, %rbp
	.cfi_def_cfa_register %rbp
	pushq	%r15
	pushq	%r14
	pushq	%r12
	pushq	%rbx
	subq	$64, %rsp
	.cfi_offset %rbx, -48
	.cfi_offset %r12, -40
	.cfi_offset %r14, -32
	.cfi_offset %r15, -24
	movq	%rdx, %r14
	movq	%rsi, %r15
	movq	%rdi, %rbx
	movl	$247, __profile__funcID
	callq	__profile__record_time_begin
	movq	%rax, %r12
	movq	%rbx, -56(%rbp)
	movq	%r15, -48(%rbp)
	movq	%r14, -40(%rbp)
	movq	-56(%rbp), %rdi
	movq	-48(%rbp), %rsi
	movq	-40(%rbp), %rdx
	callq	mpi_comm_rank_
	movabsq	$.L__unnamed_122, %rdi
	movq	%r12, %rsi
	callq	__profile__record_time_end
	addq	$64, %rsp
	popq	%rbx
	popq	%r12
	popq	%r14
	popq	%r15
	popq	%rbp
	.cfi_def_cfa %rsp, 8
	retq
.Lfunc_end121:
	.size	mpi_comm_rank__, .Lfunc_end121-mpi_comm_rank__
	.cfi_endproc
                                        # -- End function
	.globl	MPI_COMM_RANK           # -- Begin function MPI_COMM_RANK
	.p2align	4, 0x90
	.type	MPI_COMM_RANK,@function
MPI_COMM_RANK:                          # @MPI_COMM_RANK
	.cfi_startproc
# %bb.0:                                # %entry
	pushq	%rbp
	.cfi_def_cfa_offset 16
	.cfi_offset %rbp, -16
	movq	%rsp, %rbp
	.cfi_def_cfa_register %rbp
	pushq	%r15
	pushq	%r14
	pushq	%r12
	pushq	%rbx
	subq	$64, %rsp
	.cfi_offset %rbx, -48
	.cfi_offset %r12, -40
	.cfi_offset %r14, -32
	.cfi_offset %r15, -24
	movq	%rdx, %r14
	movq	%rsi, %r15
	movq	%rdi, %rbx
	movl	$248, __profile__funcID
	callq	__profile__record_time_begin
	movq	%rax, %r12
	movq	%rbx, -56(%rbp)
	movq	%r15, -48(%rbp)
	movq	%r14, -40(%rbp)
	movq	-56(%rbp), %rdi
	movq	-48(%rbp), %rsi
	movq	-40(%rbp), %rdx
	callq	mpi_comm_rank_
	movabsq	$.L__unnamed_123, %rdi
	movq	%r12, %rsi
	callq	__profile__record_time_end
	addq	$64, %rsp
	popq	%rbx
	popq	%r12
	popq	%r14
	popq	%r15
	popq	%rbp
	.cfi_def_cfa %rsp, 8
	retq
.Lfunc_end122:
	.size	MPI_COMM_RANK, .Lfunc_end122-MPI_COMM_RANK
	.cfi_endproc
                                        # -- End function
	.globl	MPI_COMM_RANK_          # -- Begin function MPI_COMM_RANK_
	.p2align	4, 0x90
	.type	MPI_COMM_RANK_,@function
MPI_COMM_RANK_:                         # @MPI_COMM_RANK_
	.cfi_startproc
# %bb.0:                                # %entry
	pushq	%rbp
	.cfi_def_cfa_offset 16
	.cfi_offset %rbp, -16
	movq	%rsp, %rbp
	.cfi_def_cfa_register %rbp
	pushq	%r15
	pushq	%r14
	pushq	%r12
	pushq	%rbx
	subq	$64, %rsp
	.cfi_offset %rbx, -48
	.cfi_offset %r12, -40
	.cfi_offset %r14, -32
	.cfi_offset %r15, -24
	movq	%rdx, %r14
	movq	%rsi, %r15
	movq	%rdi, %rbx
	movl	$249, __profile__funcID
	callq	__profile__record_time_begin
	movq	%rax, %r12
	movq	%rbx, -56(%rbp)
	movq	%r15, -48(%rbp)
	movq	%r14, -40(%rbp)
	movq	-56(%rbp), %rdi
	movq	-48(%rbp), %rsi
	movq	-40(%rbp), %rdx
	callq	mpi_comm_rank_
	movabsq	$.L__unnamed_124, %rdi
	movq	%r12, %rsi
	callq	__profile__record_time_end
	addq	$64, %rsp
	popq	%rbx
	popq	%r12
	popq	%r14
	popq	%r15
	popq	%rbp
	.cfi_def_cfa %rsp, 8
	retq
.Lfunc_end123:
	.size	MPI_COMM_RANK_, .Lfunc_end123-MPI_COMM_RANK_
	.cfi_endproc
                                        # -- End function
	.globl	mpi_comm_rank           # -- Begin function mpi_comm_rank
	.p2align	4, 0x90
	.type	mpi_comm_rank,@function
mpi_comm_rank:                          # @mpi_comm_rank
	.cfi_startproc
# %bb.0:                                # %entry
	pushq	%rbp
	.cfi_def_cfa_offset 16
	.cfi_offset %rbp, -16
	movq	%rsp, %rbp
	.cfi_def_cfa_register %rbp
	pushq	%r15
	pushq	%r14
	pushq	%r12
	pushq	%rbx
	subq	$64, %rsp
	.cfi_offset %rbx, -48
	.cfi_offset %r12, -40
	.cfi_offset %r14, -32
	.cfi_offset %r15, -24
	movq	%rdx, %r14
	movq	%rsi, %r15
	movq	%rdi, %rbx
	movl	$250, __profile__funcID
	callq	__profile__record_time_begin
	movq	%rax, %r12
	movq	%rbx, -56(%rbp)
	movq	%r15, -48(%rbp)
	movq	%r14, -40(%rbp)
	movq	-56(%rbp), %rdi
	movq	-48(%rbp), %rsi
	movq	-40(%rbp), %rdx
	callq	mpi_comm_rank_
	movabsq	$.L__unnamed_125, %rdi
	movq	%r12, %rsi
	callq	__profile__record_time_end
	addq	$64, %rsp
	popq	%rbx
	popq	%r12
	popq	%r14
	popq	%r15
	popq	%rbp
	.cfi_def_cfa %rsp, 8
	retq
.Lfunc_end124:
	.size	mpi_comm_rank, .Lfunc_end124-mpi_comm_rank
	.cfi_endproc
                                        # -- End function
	.globl	mpi_comm_remote_group_  # -- Begin function mpi_comm_remote_group_
	.p2align	4, 0x90
	.type	mpi_comm_remote_group_,@function
mpi_comm_remote_group_:                 # @mpi_comm_remote_group_
	.cfi_startproc
# %bb.0:                                # %entry
	pushq	%rbp
	.cfi_def_cfa_offset 16
	.cfi_offset %rbp, -16
	movq	%rsp, %rbp
	.cfi_def_cfa_register %rbp
	pushq	%r15
	pushq	%r14
	pushq	%r12
	pushq	%rbx
	subq	$80, %rsp
	.cfi_offset %rbx, -48
	.cfi_offset %r12, -40
	.cfi_offset %r14, -32
	.cfi_offset %r15, -24
	movq	%rdx, %r14
	movq	%rsi, %r15
	movq	%rdi, %rbx
	movl	$251, __profile__funcID
	callq	__profile__record_time_begin
	movq	%rax, %r12
	movq	%rbx, -64(%rbp)
	movq	%r15, -56(%rbp)
	movq	%r14, -48(%rbp)
	movq	-64(%rbp), %rax
	movl	(%rax), %edi
	leaq	-36(%rbp), %rsi
	callq	MPI_Comm_remote_group
	movq	-48(%rbp), %rcx
	movl	%eax, (%rcx)
	movl	-36(%rbp), %eax
	movq	-56(%rbp), %rcx
	movl	%eax, (%rcx)
	movabsq	$.L__unnamed_126, %rdi
	movq	%r12, %rsi
	callq	__profile__record_time_end
	addq	$80, %rsp
	popq	%rbx
	popq	%r12
	popq	%r14
	popq	%r15
	popq	%rbp
	.cfi_def_cfa %rsp, 8
	retq
.Lfunc_end125:
	.size	mpi_comm_remote_group_, .Lfunc_end125-mpi_comm_remote_group_
	.cfi_endproc
                                        # -- End function
	.globl	mpi_comm_remote_group__ # -- Begin function mpi_comm_remote_group__
	.p2align	4, 0x90
	.type	mpi_comm_remote_group__,@function
mpi_comm_remote_group__:                # @mpi_comm_remote_group__
	.cfi_startproc
# %bb.0:                                # %entry
	pushq	%rbp
	.cfi_def_cfa_offset 16
	.cfi_offset %rbp, -16
	movq	%rsp, %rbp
	.cfi_def_cfa_register %rbp
	pushq	%r15
	pushq	%r14
	pushq	%r12
	pushq	%rbx
	subq	$64, %rsp
	.cfi_offset %rbx, -48
	.cfi_offset %r12, -40
	.cfi_offset %r14, -32
	.cfi_offset %r15, -24
	movq	%rdx, %r14
	movq	%rsi, %r15
	movq	%rdi, %rbx
	movl	$252, __profile__funcID
	callq	__profile__record_time_begin
	movq	%rax, %r12
	movq	%rbx, -56(%rbp)
	movq	%r15, -48(%rbp)
	movq	%r14, -40(%rbp)
	movq	-56(%rbp), %rdi
	movq	-48(%rbp), %rsi
	movq	-40(%rbp), %rdx
	callq	mpi_comm_remote_group_
	movabsq	$.L__unnamed_127, %rdi
	movq	%r12, %rsi
	callq	__profile__record_time_end
	addq	$64, %rsp
	popq	%rbx
	popq	%r12
	popq	%r14
	popq	%r15
	popq	%rbp
	.cfi_def_cfa %rsp, 8
	retq
.Lfunc_end126:
	.size	mpi_comm_remote_group__, .Lfunc_end126-mpi_comm_remote_group__
	.cfi_endproc
                                        # -- End function
	.globl	MPI_COMM_REMOTE_GROUP   # -- Begin function MPI_COMM_REMOTE_GROUP
	.p2align	4, 0x90
	.type	MPI_COMM_REMOTE_GROUP,@function
MPI_COMM_REMOTE_GROUP:                  # @MPI_COMM_REMOTE_GROUP
	.cfi_startproc
# %bb.0:                                # %entry
	pushq	%rbp
	.cfi_def_cfa_offset 16
	.cfi_offset %rbp, -16
	movq	%rsp, %rbp
	.cfi_def_cfa_register %rbp
	pushq	%r15
	pushq	%r14
	pushq	%r12
	pushq	%rbx
	subq	$64, %rsp
	.cfi_offset %rbx, -48
	.cfi_offset %r12, -40
	.cfi_offset %r14, -32
	.cfi_offset %r15, -24
	movq	%rdx, %r14
	movq	%rsi, %r15
	movq	%rdi, %rbx
	movl	$253, __profile__funcID
	callq	__profile__record_time_begin
	movq	%rax, %r12
	movq	%rbx, -56(%rbp)
	movq	%r15, -48(%rbp)
	movq	%r14, -40(%rbp)
	movq	-56(%rbp), %rdi
	movq	-48(%rbp), %rsi
	movq	-40(%rbp), %rdx
	callq	mpi_comm_remote_group_
	movabsq	$.L__unnamed_128, %rdi
	movq	%r12, %rsi
	callq	__profile__record_time_end
	addq	$64, %rsp
	popq	%rbx
	popq	%r12
	popq	%r14
	popq	%r15
	popq	%rbp
	.cfi_def_cfa %rsp, 8
	retq
.Lfunc_end127:
	.size	MPI_COMM_REMOTE_GROUP, .Lfunc_end127-MPI_COMM_REMOTE_GROUP
	.cfi_endproc
                                        # -- End function
	.globl	MPI_COMM_REMOTE_GROUP_  # -- Begin function MPI_COMM_REMOTE_GROUP_
	.p2align	4, 0x90
	.type	MPI_COMM_REMOTE_GROUP_,@function
MPI_COMM_REMOTE_GROUP_:                 # @MPI_COMM_REMOTE_GROUP_
	.cfi_startproc
# %bb.0:                                # %entry
	pushq	%rbp
	.cfi_def_cfa_offset 16
	.cfi_offset %rbp, -16
	movq	%rsp, %rbp
	.cfi_def_cfa_register %rbp
	pushq	%r15
	pushq	%r14
	pushq	%r12
	pushq	%rbx
	subq	$64, %rsp
	.cfi_offset %rbx, -48
	.cfi_offset %r12, -40
	.cfi_offset %r14, -32
	.cfi_offset %r15, -24
	movq	%rdx, %r14
	movq	%rsi, %r15
	movq	%rdi, %rbx
	movl	$254, __profile__funcID
	callq	__profile__record_time_begin
	movq	%rax, %r12
	movq	%rbx, -56(%rbp)
	movq	%r15, -48(%rbp)
	movq	%r14, -40(%rbp)
	movq	-56(%rbp), %rdi
	movq	-48(%rbp), %rsi
	movq	-40(%rbp), %rdx
	callq	mpi_comm_remote_group_
	movabsq	$.L__unnamed_129, %rdi
	movq	%r12, %rsi
	callq	__profile__record_time_end
	addq	$64, %rsp
	popq	%rbx
	popq	%r12
	popq	%r14
	popq	%r15
	popq	%rbp
	.cfi_def_cfa %rsp, 8
	retq
.Lfunc_end128:
	.size	MPI_COMM_REMOTE_GROUP_, .Lfunc_end128-MPI_COMM_REMOTE_GROUP_
	.cfi_endproc
                                        # -- End function
	.globl	mpi_comm_remote_group   # -- Begin function mpi_comm_remote_group
	.p2align	4, 0x90
	.type	mpi_comm_remote_group,@function
mpi_comm_remote_group:                  # @mpi_comm_remote_group
	.cfi_startproc
# %bb.0:                                # %entry
	pushq	%rbp
	.cfi_def_cfa_offset 16
	.cfi_offset %rbp, -16
	movq	%rsp, %rbp
	.cfi_def_cfa_register %rbp
	pushq	%r15
	pushq	%r14
	pushq	%r12
	pushq	%rbx
	subq	$64, %rsp
	.cfi_offset %rbx, -48
	.cfi_offset %r12, -40
	.cfi_offset %r14, -32
	.cfi_offset %r15, -24
	movq	%rdx, %r14
	movq	%rsi, %r15
	movq	%rdi, %rbx
	movl	$255, __profile__funcID
	callq	__profile__record_time_begin
	movq	%rax, %r12
	movq	%rbx, -56(%rbp)
	movq	%r15, -48(%rbp)
	movq	%r14, -40(%rbp)
	movq	-56(%rbp), %rdi
	movq	-48(%rbp), %rsi
	movq	-40(%rbp), %rdx
	callq	mpi_comm_remote_group_
	movabsq	$.L__unnamed_130, %rdi
	movq	%r12, %rsi
	callq	__profile__record_time_end
	addq	$64, %rsp
	popq	%rbx
	popq	%r12
	popq	%r14
	popq	%r15
	popq	%rbp
	.cfi_def_cfa %rsp, 8
	retq
.Lfunc_end129:
	.size	mpi_comm_remote_group, .Lfunc_end129-mpi_comm_remote_group
	.cfi_endproc
                                        # -- End function
	.globl	mpi_comm_remote_size_   # -- Begin function mpi_comm_remote_size_
	.p2align	4, 0x90
	.type	mpi_comm_remote_size_,@function
mpi_comm_remote_size_:                  # @mpi_comm_remote_size_
	.cfi_startproc
# %bb.0:                                # %entry
	pushq	%rbp
	.cfi_def_cfa_offset 16
	.cfi_offset %rbp, -16
	movq	%rsp, %rbp
	.cfi_def_cfa_register %rbp
	pushq	%r15
	pushq	%r14
	pushq	%r12
	pushq	%rbx
	subq	$64, %rsp
	.cfi_offset %rbx, -48
	.cfi_offset %r12, -40
	.cfi_offset %r14, -32
	.cfi_offset %r15, -24
	movq	%rdx, %r14
	movq	%rsi, %r15
	movq	%rdi, %rbx
	movl	$256, __profile__funcID # imm = 0x100
	callq	__profile__record_time_begin
	movq	%rax, %r12
	movq	%rbx, -56(%rbp)
	movq	%r15, -48(%rbp)
	movq	%r14, -40(%rbp)
	movq	-56(%rbp), %rax
	movl	(%rax), %edi
	movq	-48(%rbp), %rsi
	callq	MPI_Comm_remote_size
	movq	-40(%rbp), %rcx
	movl	%eax, (%rcx)
	movabsq	$.L__unnamed_131, %rdi
	movq	%r12, %rsi
	callq	__profile__record_time_end
	addq	$64, %rsp
	popq	%rbx
	popq	%r12
	popq	%r14
	popq	%r15
	popq	%rbp
	.cfi_def_cfa %rsp, 8
	retq
.Lfunc_end130:
	.size	mpi_comm_remote_size_, .Lfunc_end130-mpi_comm_remote_size_
	.cfi_endproc
                                        # -- End function
	.globl	mpi_comm_remote_size__  # -- Begin function mpi_comm_remote_size__
	.p2align	4, 0x90
	.type	mpi_comm_remote_size__,@function
mpi_comm_remote_size__:                 # @mpi_comm_remote_size__
	.cfi_startproc
# %bb.0:                                # %entry
	pushq	%rbp
	.cfi_def_cfa_offset 16
	.cfi_offset %rbp, -16
	movq	%rsp, %rbp
	.cfi_def_cfa_register %rbp
	pushq	%r15
	pushq	%r14
	pushq	%r12
	pushq	%rbx
	subq	$64, %rsp
	.cfi_offset %rbx, -48
	.cfi_offset %r12, -40
	.cfi_offset %r14, -32
	.cfi_offset %r15, -24
	movq	%rdx, %r14
	movq	%rsi, %r15
	movq	%rdi, %rbx
	movl	$257, __profile__funcID # imm = 0x101
	callq	__profile__record_time_begin
	movq	%rax, %r12
	movq	%rbx, -56(%rbp)
	movq	%r15, -48(%rbp)
	movq	%r14, -40(%rbp)
	movq	-56(%rbp), %rdi
	movq	-48(%rbp), %rsi
	movq	-40(%rbp), %rdx
	callq	mpi_comm_remote_size_
	movabsq	$.L__unnamed_132, %rdi
	movq	%r12, %rsi
	callq	__profile__record_time_end
	addq	$64, %rsp
	popq	%rbx
	popq	%r12
	popq	%r14
	popq	%r15
	popq	%rbp
	.cfi_def_cfa %rsp, 8
	retq
.Lfunc_end131:
	.size	mpi_comm_remote_size__, .Lfunc_end131-mpi_comm_remote_size__
	.cfi_endproc
                                        # -- End function
	.globl	MPI_COMM_REMOTE_SIZE    # -- Begin function MPI_COMM_REMOTE_SIZE
	.p2align	4, 0x90
	.type	MPI_COMM_REMOTE_SIZE,@function
MPI_COMM_REMOTE_SIZE:                   # @MPI_COMM_REMOTE_SIZE
	.cfi_startproc
# %bb.0:                                # %entry
	pushq	%rbp
	.cfi_def_cfa_offset 16
	.cfi_offset %rbp, -16
	movq	%rsp, %rbp
	.cfi_def_cfa_register %rbp
	pushq	%r15
	pushq	%r14
	pushq	%r12
	pushq	%rbx
	subq	$64, %rsp
	.cfi_offset %rbx, -48
	.cfi_offset %r12, -40
	.cfi_offset %r14, -32
	.cfi_offset %r15, -24
	movq	%rdx, %r14
	movq	%rsi, %r15
	movq	%rdi, %rbx
	movl	$258, __profile__funcID # imm = 0x102
	callq	__profile__record_time_begin
	movq	%rax, %r12
	movq	%rbx, -56(%rbp)
	movq	%r15, -48(%rbp)
	movq	%r14, -40(%rbp)
	movq	-56(%rbp), %rdi
	movq	-48(%rbp), %rsi
	movq	-40(%rbp), %rdx
	callq	mpi_comm_remote_size_
	movabsq	$.L__unnamed_133, %rdi
	movq	%r12, %rsi
	callq	__profile__record_time_end
	addq	$64, %rsp
	popq	%rbx
	popq	%r12
	popq	%r14
	popq	%r15
	popq	%rbp
	.cfi_def_cfa %rsp, 8
	retq
.Lfunc_end132:
	.size	MPI_COMM_REMOTE_SIZE, .Lfunc_end132-MPI_COMM_REMOTE_SIZE
	.cfi_endproc
                                        # -- End function
	.globl	MPI_COMM_REMOTE_SIZE_   # -- Begin function MPI_COMM_REMOTE_SIZE_
	.p2align	4, 0x90
	.type	MPI_COMM_REMOTE_SIZE_,@function
MPI_COMM_REMOTE_SIZE_:                  # @MPI_COMM_REMOTE_SIZE_
	.cfi_startproc
# %bb.0:                                # %entry
	pushq	%rbp
	.cfi_def_cfa_offset 16
	.cfi_offset %rbp, -16
	movq	%rsp, %rbp
	.cfi_def_cfa_register %rbp
	pushq	%r15
	pushq	%r14
	pushq	%r12
	pushq	%rbx
	subq	$64, %rsp
	.cfi_offset %rbx, -48
	.cfi_offset %r12, -40
	.cfi_offset %r14, -32
	.cfi_offset %r15, -24
	movq	%rdx, %r14
	movq	%rsi, %r15
	movq	%rdi, %rbx
	movl	$259, __profile__funcID # imm = 0x103
	callq	__profile__record_time_begin
	movq	%rax, %r12
	movq	%rbx, -56(%rbp)
	movq	%r15, -48(%rbp)
	movq	%r14, -40(%rbp)
	movq	-56(%rbp), %rdi
	movq	-48(%rbp), %rsi
	movq	-40(%rbp), %rdx
	callq	mpi_comm_remote_size_
	movabsq	$.L__unnamed_134, %rdi
	movq	%r12, %rsi
	callq	__profile__record_time_end
	addq	$64, %rsp
	popq	%rbx
	popq	%r12
	popq	%r14
	popq	%r15
	popq	%rbp
	.cfi_def_cfa %rsp, 8
	retq
.Lfunc_end133:
	.size	MPI_COMM_REMOTE_SIZE_, .Lfunc_end133-MPI_COMM_REMOTE_SIZE_
	.cfi_endproc
                                        # -- End function
	.globl	mpi_comm_remote_size    # -- Begin function mpi_comm_remote_size
	.p2align	4, 0x90
	.type	mpi_comm_remote_size,@function
mpi_comm_remote_size:                   # @mpi_comm_remote_size
	.cfi_startproc
# %bb.0:                                # %entry
	pushq	%rbp
	.cfi_def_cfa_offset 16
	.cfi_offset %rbp, -16
	movq	%rsp, %rbp
	.cfi_def_cfa_register %rbp
	pushq	%r15
	pushq	%r14
	pushq	%r12
	pushq	%rbx
	subq	$64, %rsp
	.cfi_offset %rbx, -48
	.cfi_offset %r12, -40
	.cfi_offset %r14, -32
	.cfi_offset %r15, -24
	movq	%rdx, %r14
	movq	%rsi, %r15
	movq	%rdi, %rbx
	movl	$260, __profile__funcID # imm = 0x104
	callq	__profile__record_time_begin
	movq	%rax, %r12
	movq	%rbx, -56(%rbp)
	movq	%r15, -48(%rbp)
	movq	%r14, -40(%rbp)
	movq	-56(%rbp), %rdi
	movq	-48(%rbp), %rsi
	movq	-40(%rbp), %rdx
	callq	mpi_comm_remote_size_
	movabsq	$.L__unnamed_135, %rdi
	movq	%r12, %rsi
	callq	__profile__record_time_end
	addq	$64, %rsp
	popq	%rbx
	popq	%r12
	popq	%r14
	popq	%r15
	popq	%rbp
	.cfi_def_cfa %rsp, 8
	retq
.Lfunc_end134:
	.size	mpi_comm_remote_size, .Lfunc_end134-mpi_comm_remote_size
	.cfi_endproc
                                        # -- End function
	.globl	mpi_comm_size_          # -- Begin function mpi_comm_size_
	.p2align	4, 0x90
	.type	mpi_comm_size_,@function
mpi_comm_size_:                         # @mpi_comm_size_
	.cfi_startproc
# %bb.0:                                # %entry
	pushq	%rbp
	.cfi_def_cfa_offset 16
	.cfi_offset %rbp, -16
	movq	%rsp, %rbp
	.cfi_def_cfa_register %rbp
	pushq	%r15
	pushq	%r14
	pushq	%r12
	pushq	%rbx
	subq	$64, %rsp
	.cfi_offset %rbx, -48
	.cfi_offset %r12, -40
	.cfi_offset %r14, -32
	.cfi_offset %r15, -24
	movq	%rdx, %r14
	movq	%rsi, %r15
	movq	%rdi, %rbx
	movl	$261, __profile__funcID # imm = 0x105
	callq	__profile__record_time_begin
	movq	%rax, %r12
	movq	%rbx, -56(%rbp)
	movq	%r15, -48(%rbp)
	movq	%r14, -40(%rbp)
	movq	-56(%rbp), %rax
	movl	(%rax), %edi
	movq	-48(%rbp), %rsi
	callq	MPI_Comm_size
	movq	-40(%rbp), %rcx
	movl	%eax, (%rcx)
	movabsq	$.L__unnamed_136, %rdi
	movq	%r12, %rsi
	callq	__profile__record_time_end
	addq	$64, %rsp
	popq	%rbx
	popq	%r12
	popq	%r14
	popq	%r15
	popq	%rbp
	.cfi_def_cfa %rsp, 8
	retq
.Lfunc_end135:
	.size	mpi_comm_size_, .Lfunc_end135-mpi_comm_size_
	.cfi_endproc
                                        # -- End function
	.globl	mpi_comm_size__         # -- Begin function mpi_comm_size__
	.p2align	4, 0x90
	.type	mpi_comm_size__,@function
mpi_comm_size__:                        # @mpi_comm_size__
	.cfi_startproc
# %bb.0:                                # %entry
	pushq	%rbp
	.cfi_def_cfa_offset 16
	.cfi_offset %rbp, -16
	movq	%rsp, %rbp
	.cfi_def_cfa_register %rbp
	pushq	%r15
	pushq	%r14
	pushq	%r12
	pushq	%rbx
	subq	$64, %rsp
	.cfi_offset %rbx, -48
	.cfi_offset %r12, -40
	.cfi_offset %r14, -32
	.cfi_offset %r15, -24
	movq	%rdx, %r14
	movq	%rsi, %r15
	movq	%rdi, %rbx
	movl	$262, __profile__funcID # imm = 0x106
	callq	__profile__record_time_begin
	movq	%rax, %r12
	movq	%rbx, -56(%rbp)
	movq	%r15, -48(%rbp)
	movq	%r14, -40(%rbp)
	movq	-56(%rbp), %rdi
	movq	-48(%rbp), %rsi
	movq	-40(%rbp), %rdx
	callq	mpi_comm_size_
	movabsq	$.L__unnamed_137, %rdi
	movq	%r12, %rsi
	callq	__profile__record_time_end
	addq	$64, %rsp
	popq	%rbx
	popq	%r12
	popq	%r14
	popq	%r15
	popq	%rbp
	.cfi_def_cfa %rsp, 8
	retq
.Lfunc_end136:
	.size	mpi_comm_size__, .Lfunc_end136-mpi_comm_size__
	.cfi_endproc
                                        # -- End function
	.globl	MPI_COMM_SIZE           # -- Begin function MPI_COMM_SIZE
	.p2align	4, 0x90
	.type	MPI_COMM_SIZE,@function
MPI_COMM_SIZE:                          # @MPI_COMM_SIZE
	.cfi_startproc
# %bb.0:                                # %entry
	pushq	%rbp
	.cfi_def_cfa_offset 16
	.cfi_offset %rbp, -16
	movq	%rsp, %rbp
	.cfi_def_cfa_register %rbp
	pushq	%r15
	pushq	%r14
	pushq	%r12
	pushq	%rbx
	subq	$64, %rsp
	.cfi_offset %rbx, -48
	.cfi_offset %r12, -40
	.cfi_offset %r14, -32
	.cfi_offset %r15, -24
	movq	%rdx, %r14
	movq	%rsi, %r15
	movq	%rdi, %rbx
	movl	$263, __profile__funcID # imm = 0x107
	callq	__profile__record_time_begin
	movq	%rax, %r12
	movq	%rbx, -56(%rbp)
	movq	%r15, -48(%rbp)
	movq	%r14, -40(%rbp)
	movq	-56(%rbp), %rdi
	movq	-48(%rbp), %rsi
	movq	-40(%rbp), %rdx
	callq	mpi_comm_size_
	movabsq	$.L__unnamed_138, %rdi
	movq	%r12, %rsi
	callq	__profile__record_time_end
	addq	$64, %rsp
	popq	%rbx
	popq	%r12
	popq	%r14
	popq	%r15
	popq	%rbp
	.cfi_def_cfa %rsp, 8
	retq
.Lfunc_end137:
	.size	MPI_COMM_SIZE, .Lfunc_end137-MPI_COMM_SIZE
	.cfi_endproc
                                        # -- End function
	.globl	MPI_COMM_SIZE_          # -- Begin function MPI_COMM_SIZE_
	.p2align	4, 0x90
	.type	MPI_COMM_SIZE_,@function
MPI_COMM_SIZE_:                         # @MPI_COMM_SIZE_
	.cfi_startproc
# %bb.0:                                # %entry
	pushq	%rbp
	.cfi_def_cfa_offset 16
	.cfi_offset %rbp, -16
	movq	%rsp, %rbp
	.cfi_def_cfa_register %rbp
	pushq	%r15
	pushq	%r14
	pushq	%r12
	pushq	%rbx
	subq	$64, %rsp
	.cfi_offset %rbx, -48
	.cfi_offset %r12, -40
	.cfi_offset %r14, -32
	.cfi_offset %r15, -24
	movq	%rdx, %r14
	movq	%rsi, %r15
	movq	%rdi, %rbx
	movl	$264, __profile__funcID # imm = 0x108
	callq	__profile__record_time_begin
	movq	%rax, %r12
	movq	%rbx, -56(%rbp)
	movq	%r15, -48(%rbp)
	movq	%r14, -40(%rbp)
	movq	-56(%rbp), %rdi
	movq	-48(%rbp), %rsi
	movq	-40(%rbp), %rdx
	callq	mpi_comm_size_
	movabsq	$.L__unnamed_139, %rdi
	movq	%r12, %rsi
	callq	__profile__record_time_end
	addq	$64, %rsp
	popq	%rbx
	popq	%r12
	popq	%r14
	popq	%r15
	popq	%rbp
	.cfi_def_cfa %rsp, 8
	retq
.Lfunc_end138:
	.size	MPI_COMM_SIZE_, .Lfunc_end138-MPI_COMM_SIZE_
	.cfi_endproc
                                        # -- End function
	.globl	mpi_comm_size           # -- Begin function mpi_comm_size
	.p2align	4, 0x90
	.type	mpi_comm_size,@function
mpi_comm_size:                          # @mpi_comm_size
	.cfi_startproc
# %bb.0:                                # %entry
	pushq	%rbp
	.cfi_def_cfa_offset 16
	.cfi_offset %rbp, -16
	movq	%rsp, %rbp
	.cfi_def_cfa_register %rbp
	pushq	%r15
	pushq	%r14
	pushq	%r12
	pushq	%rbx
	subq	$64, %rsp
	.cfi_offset %rbx, -48
	.cfi_offset %r12, -40
	.cfi_offset %r14, -32
	.cfi_offset %r15, -24
	movq	%rdx, %r14
	movq	%rsi, %r15
	movq	%rdi, %rbx
	movl	$265, __profile__funcID # imm = 0x109
	callq	__profile__record_time_begin
	movq	%rax, %r12
	movq	%rbx, -56(%rbp)
	movq	%r15, -48(%rbp)
	movq	%r14, -40(%rbp)
	movq	-56(%rbp), %rdi
	movq	-48(%rbp), %rsi
	movq	-40(%rbp), %rdx
	callq	mpi_comm_size_
	movabsq	$.L__unnamed_140, %rdi
	movq	%r12, %rsi
	callq	__profile__record_time_end
	addq	$64, %rsp
	popq	%rbx
	popq	%r12
	popq	%r14
	popq	%r15
	popq	%rbp
	.cfi_def_cfa %rsp, 8
	retq
.Lfunc_end139:
	.size	mpi_comm_size, .Lfunc_end139-mpi_comm_size
	.cfi_endproc
                                        # -- End function
	.globl	mpi_comm_split_         # -- Begin function mpi_comm_split_
	.p2align	4, 0x90
	.type	mpi_comm_split_,@function
mpi_comm_split_:                        # @mpi_comm_split_
	.cfi_startproc
# %bb.0:                                # %entry
	pushq	%rbp
	.cfi_def_cfa_offset 16
	.cfi_offset %rbp, -16
	movq	%rsp, %rbp
	.cfi_def_cfa_register %rbp
	pushq	%r15
	pushq	%r14
	pushq	%r13
	pushq	%r12
	pushq	%rbx
	subq	$104, %rsp
	.cfi_offset %rbx, -56
	.cfi_offset %r12, -48
	.cfi_offset %r13, -40
	.cfi_offset %r14, -32
	.cfi_offset %r15, -24
	movq	%r8, %r14
	movq	%rcx, %r15
	movq	%rdx, %r12
	movq	%rsi, %r13
	movq	%rdi, %rbx
	movl	$266, __profile__funcID # imm = 0x10A
	callq	__profile__record_time_begin
	movq	%rax, -56(%rbp)         # 8-byte Spill
	movq	%rbx, -96(%rbp)
	movq	%r13, -88(%rbp)
	movq	%r12, -80(%rbp)
	movq	%r15, -72(%rbp)
	movq	%r14, -64(%rbp)
	movq	-96(%rbp), %rax
	movl	(%rax), %edi
	movq	-88(%rbp), %rax
	movl	(%rax), %esi
	movq	-80(%rbp), %rax
	movl	(%rax), %edx
	leaq	-44(%rbp), %rcx
	callq	MPI_Comm_split
	movq	-64(%rbp), %rcx
	movl	%eax, (%rcx)
	movl	-44(%rbp), %eax
	movq	-72(%rbp), %rcx
	movl	%eax, (%rcx)
	movabsq	$.L__unnamed_141, %rdi
	movq	-56(%rbp), %rsi         # 8-byte Reload
	callq	__profile__record_time_end
	addq	$104, %rsp
	popq	%rbx
	popq	%r12
	popq	%r13
	popq	%r14
	popq	%r15
	popq	%rbp
	.cfi_def_cfa %rsp, 8
	retq
.Lfunc_end140:
	.size	mpi_comm_split_, .Lfunc_end140-mpi_comm_split_
	.cfi_endproc
                                        # -- End function
	.globl	mpi_comm_split__        # -- Begin function mpi_comm_split__
	.p2align	4, 0x90
	.type	mpi_comm_split__,@function
mpi_comm_split__:                       # @mpi_comm_split__
	.cfi_startproc
# %bb.0:                                # %entry
	pushq	%rbp
	.cfi_def_cfa_offset 16
	.cfi_offset %rbp, -16
	movq	%rsp, %rbp
	.cfi_def_cfa_register %rbp
	pushq	%r15
	pushq	%r14
	pushq	%r13
	pushq	%r12
	pushq	%rbx
	subq	$88, %rsp
	.cfi_offset %rbx, -56
	.cfi_offset %r12, -48
	.cfi_offset %r13, -40
	.cfi_offset %r14, -32
	.cfi_offset %r15, -24
	movq	%r8, %r14
	movq	%rcx, %r15
	movq	%rdx, %r12
	movq	%rsi, %r13
	movq	%rdi, %rbx
	movl	$267, __profile__funcID # imm = 0x10B
	callq	__profile__record_time_begin
	movq	%rax, -48(%rbp)         # 8-byte Spill
	movq	%rbx, -88(%rbp)
	movq	%r13, -80(%rbp)
	movq	%r12, -72(%rbp)
	movq	%r15, -64(%rbp)
	movq	%r14, -56(%rbp)
	movq	-88(%rbp), %rdi
	movq	-80(%rbp), %rsi
	movq	-72(%rbp), %rdx
	movq	-64(%rbp), %rcx
	movq	-56(%rbp), %r8
	callq	mpi_comm_split_
	movabsq	$.L__unnamed_142, %rdi
	movq	-48(%rbp), %rsi         # 8-byte Reload
	callq	__profile__record_time_end
	addq	$88, %rsp
	popq	%rbx
	popq	%r12
	popq	%r13
	popq	%r14
	popq	%r15
	popq	%rbp
	.cfi_def_cfa %rsp, 8
	retq
.Lfunc_end141:
	.size	mpi_comm_split__, .Lfunc_end141-mpi_comm_split__
	.cfi_endproc
                                        # -- End function
	.globl	MPI_COMM_SPLIT          # -- Begin function MPI_COMM_SPLIT
	.p2align	4, 0x90
	.type	MPI_COMM_SPLIT,@function
MPI_COMM_SPLIT:                         # @MPI_COMM_SPLIT
	.cfi_startproc
# %bb.0:                                # %entry
	pushq	%rbp
	.cfi_def_cfa_offset 16
	.cfi_offset %rbp, -16
	movq	%rsp, %rbp
	.cfi_def_cfa_register %rbp
	pushq	%r15
	pushq	%r14
	pushq	%r13
	pushq	%r12
	pushq	%rbx
	subq	$88, %rsp
	.cfi_offset %rbx, -56
	.cfi_offset %r12, -48
	.cfi_offset %r13, -40
	.cfi_offset %r14, -32
	.cfi_offset %r15, -24
	movq	%r8, %r14
	movq	%rcx, %r15
	movq	%rdx, %r12
	movq	%rsi, %r13
	movq	%rdi, %rbx
	movl	$268, __profile__funcID # imm = 0x10C
	callq	__profile__record_time_begin
	movq	%rax, -48(%rbp)         # 8-byte Spill
	movq	%rbx, -88(%rbp)
	movq	%r13, -80(%rbp)
	movq	%r12, -72(%rbp)
	movq	%r15, -64(%rbp)
	movq	%r14, -56(%rbp)
	movq	-88(%rbp), %rdi
	movq	-80(%rbp), %rsi
	movq	-72(%rbp), %rdx
	movq	-64(%rbp), %rcx
	movq	-56(%rbp), %r8
	callq	mpi_comm_split_
	movabsq	$.L__unnamed_143, %rdi
	movq	-48(%rbp), %rsi         # 8-byte Reload
	callq	__profile__record_time_end
	addq	$88, %rsp
	popq	%rbx
	popq	%r12
	popq	%r13
	popq	%r14
	popq	%r15
	popq	%rbp
	.cfi_def_cfa %rsp, 8
	retq
.Lfunc_end142:
	.size	MPI_COMM_SPLIT, .Lfunc_end142-MPI_COMM_SPLIT
	.cfi_endproc
                                        # -- End function
	.globl	MPI_COMM_SPLIT_         # -- Begin function MPI_COMM_SPLIT_
	.p2align	4, 0x90
	.type	MPI_COMM_SPLIT_,@function
MPI_COMM_SPLIT_:                        # @MPI_COMM_SPLIT_
	.cfi_startproc
# %bb.0:                                # %entry
	pushq	%rbp
	.cfi_def_cfa_offset 16
	.cfi_offset %rbp, -16
	movq	%rsp, %rbp
	.cfi_def_cfa_register %rbp
	pushq	%r15
	pushq	%r14
	pushq	%r13
	pushq	%r12
	pushq	%rbx
	subq	$88, %rsp
	.cfi_offset %rbx, -56
	.cfi_offset %r12, -48
	.cfi_offset %r13, -40
	.cfi_offset %r14, -32
	.cfi_offset %r15, -24
	movq	%r8, %r14
	movq	%rcx, %r15
	movq	%rdx, %r12
	movq	%rsi, %r13
	movq	%rdi, %rbx
	movl	$269, __profile__funcID # imm = 0x10D
	callq	__profile__record_time_begin
	movq	%rax, -48(%rbp)         # 8-byte Spill
	movq	%rbx, -88(%rbp)
	movq	%r13, -80(%rbp)
	movq	%r12, -72(%rbp)
	movq	%r15, -64(%rbp)
	movq	%r14, -56(%rbp)
	movq	-88(%rbp), %rdi
	movq	-80(%rbp), %rsi
	movq	-72(%rbp), %rdx
	movq	-64(%rbp), %rcx
	movq	-56(%rbp), %r8
	callq	mpi_comm_split_
	movabsq	$.L__unnamed_144, %rdi
	movq	-48(%rbp), %rsi         # 8-byte Reload
	callq	__profile__record_time_end
	addq	$88, %rsp
	popq	%rbx
	popq	%r12
	popq	%r13
	popq	%r14
	popq	%r15
	popq	%rbp
	.cfi_def_cfa %rsp, 8
	retq
.Lfunc_end143:
	.size	MPI_COMM_SPLIT_, .Lfunc_end143-MPI_COMM_SPLIT_
	.cfi_endproc
                                        # -- End function
	.globl	mpi_comm_split          # -- Begin function mpi_comm_split
	.p2align	4, 0x90
	.type	mpi_comm_split,@function
mpi_comm_split:                         # @mpi_comm_split
	.cfi_startproc
# %bb.0:                                # %entry
	pushq	%rbp
	.cfi_def_cfa_offset 16
	.cfi_offset %rbp, -16
	movq	%rsp, %rbp
	.cfi_def_cfa_register %rbp
	pushq	%r15
	pushq	%r14
	pushq	%r13
	pushq	%r12
	pushq	%rbx
	subq	$88, %rsp
	.cfi_offset %rbx, -56
	.cfi_offset %r12, -48
	.cfi_offset %r13, -40
	.cfi_offset %r14, -32
	.cfi_offset %r15, -24
	movq	%r8, %r14
	movq	%rcx, %r15
	movq	%rdx, %r12
	movq	%rsi, %r13
	movq	%rdi, %rbx
	movl	$270, __profile__funcID # imm = 0x10E
	callq	__profile__record_time_begin
	movq	%rax, -48(%rbp)         # 8-byte Spill
	movq	%rbx, -88(%rbp)
	movq	%r13, -80(%rbp)
	movq	%r12, -72(%rbp)
	movq	%r15, -64(%rbp)
	movq	%r14, -56(%rbp)
	movq	-88(%rbp), %rdi
	movq	-80(%rbp), %rsi
	movq	-72(%rbp), %rdx
	movq	-64(%rbp), %rcx
	movq	-56(%rbp), %r8
	callq	mpi_comm_split_
	movabsq	$.L__unnamed_145, %rdi
	movq	-48(%rbp), %rsi         # 8-byte Reload
	callq	__profile__record_time_end
	addq	$88, %rsp
	popq	%rbx
	popq	%r12
	popq	%r13
	popq	%r14
	popq	%r15
	popq	%rbp
	.cfi_def_cfa %rsp, 8
	retq
.Lfunc_end144:
	.size	mpi_comm_split, .Lfunc_end144-mpi_comm_split
	.cfi_endproc
                                        # -- End function
	.globl	mpi_comm_test_inter_    # -- Begin function mpi_comm_test_inter_
	.p2align	4, 0x90
	.type	mpi_comm_test_inter_,@function
mpi_comm_test_inter_:                   # @mpi_comm_test_inter_
	.cfi_startproc
# %bb.0:                                # %entry
	pushq	%rbp
	.cfi_def_cfa_offset 16
	.cfi_offset %rbp, -16
	movq	%rsp, %rbp
	.cfi_def_cfa_register %rbp
	pushq	%r15
	pushq	%r14
	pushq	%r12
	pushq	%rbx
	subq	$64, %rsp
	.cfi_offset %rbx, -48
	.cfi_offset %r12, -40
	.cfi_offset %r14, -32
	.cfi_offset %r15, -24
	movq	%rdx, %r14
	movq	%rsi, %r15
	movq	%rdi, %rbx
	movl	$271, __profile__funcID # imm = 0x10F
	callq	__profile__record_time_begin
	movq	%rax, %r12
	movq	%rbx, -56(%rbp)
	movq	%r15, -48(%rbp)
	movq	%r14, -40(%rbp)
	movq	-56(%rbp), %rax
	movl	(%rax), %edi
	movq	-48(%rbp), %rsi
	callq	MPI_Comm_test_inter
	movq	-40(%rbp), %rcx
	movl	%eax, (%rcx)
	movabsq	$.L__unnamed_146, %rdi
	movq	%r12, %rsi
	callq	__profile__record_time_end
	addq	$64, %rsp
	popq	%rbx
	popq	%r12
	popq	%r14
	popq	%r15
	popq	%rbp
	.cfi_def_cfa %rsp, 8
	retq
.Lfunc_end145:
	.size	mpi_comm_test_inter_, .Lfunc_end145-mpi_comm_test_inter_
	.cfi_endproc
                                        # -- End function
	.globl	mpi_comm_test_inter__   # -- Begin function mpi_comm_test_inter__
	.p2align	4, 0x90
	.type	mpi_comm_test_inter__,@function
mpi_comm_test_inter__:                  # @mpi_comm_test_inter__
	.cfi_startproc
# %bb.0:                                # %entry
	pushq	%rbp
	.cfi_def_cfa_offset 16
	.cfi_offset %rbp, -16
	movq	%rsp, %rbp
	.cfi_def_cfa_register %rbp
	pushq	%r15
	pushq	%r14
	pushq	%r12
	pushq	%rbx
	subq	$64, %rsp
	.cfi_offset %rbx, -48
	.cfi_offset %r12, -40
	.cfi_offset %r14, -32
	.cfi_offset %r15, -24
	movq	%rdx, %r14
	movq	%rsi, %r15
	movq	%rdi, %rbx
	movl	$272, __profile__funcID # imm = 0x110
	callq	__profile__record_time_begin
	movq	%rax, %r12
	movq	%rbx, -56(%rbp)
	movq	%r15, -48(%rbp)
	movq	%r14, -40(%rbp)
	movq	-56(%rbp), %rdi
	movq	-48(%rbp), %rsi
	movq	-40(%rbp), %rdx
	callq	mpi_comm_test_inter_
	movabsq	$.L__unnamed_147, %rdi
	movq	%r12, %rsi
	callq	__profile__record_time_end
	addq	$64, %rsp
	popq	%rbx
	popq	%r12
	popq	%r14
	popq	%r15
	popq	%rbp
	.cfi_def_cfa %rsp, 8
	retq
.Lfunc_end146:
	.size	mpi_comm_test_inter__, .Lfunc_end146-mpi_comm_test_inter__
	.cfi_endproc
                                        # -- End function
	.globl	MPI_COMM_TEST_INTER     # -- Begin function MPI_COMM_TEST_INTER
	.p2align	4, 0x90
	.type	MPI_COMM_TEST_INTER,@function
MPI_COMM_TEST_INTER:                    # @MPI_COMM_TEST_INTER
	.cfi_startproc
# %bb.0:                                # %entry
	pushq	%rbp
	.cfi_def_cfa_offset 16
	.cfi_offset %rbp, -16
	movq	%rsp, %rbp
	.cfi_def_cfa_register %rbp
	pushq	%r15
	pushq	%r14
	pushq	%r12
	pushq	%rbx
	subq	$64, %rsp
	.cfi_offset %rbx, -48
	.cfi_offset %r12, -40
	.cfi_offset %r14, -32
	.cfi_offset %r15, -24
	movq	%rdx, %r14
	movq	%rsi, %r15
	movq	%rdi, %rbx
	movl	$273, __profile__funcID # imm = 0x111
	callq	__profile__record_time_begin
	movq	%rax, %r12
	movq	%rbx, -56(%rbp)
	movq	%r15, -48(%rbp)
	movq	%r14, -40(%rbp)
	movq	-56(%rbp), %rdi
	movq	-48(%rbp), %rsi
	movq	-40(%rbp), %rdx
	callq	mpi_comm_test_inter_
	movabsq	$.L__unnamed_148, %rdi
	movq	%r12, %rsi
	callq	__profile__record_time_end
	addq	$64, %rsp
	popq	%rbx
	popq	%r12
	popq	%r14
	popq	%r15
	popq	%rbp
	.cfi_def_cfa %rsp, 8
	retq
.Lfunc_end147:
	.size	MPI_COMM_TEST_INTER, .Lfunc_end147-MPI_COMM_TEST_INTER
	.cfi_endproc
                                        # -- End function
	.globl	MPI_COMM_TEST_INTER_    # -- Begin function MPI_COMM_TEST_INTER_
	.p2align	4, 0x90
	.type	MPI_COMM_TEST_INTER_,@function
MPI_COMM_TEST_INTER_:                   # @MPI_COMM_TEST_INTER_
	.cfi_startproc
# %bb.0:                                # %entry
	pushq	%rbp
	.cfi_def_cfa_offset 16
	.cfi_offset %rbp, -16
	movq	%rsp, %rbp
	.cfi_def_cfa_register %rbp
	pushq	%r15
	pushq	%r14
	pushq	%r12
	pushq	%rbx
	subq	$64, %rsp
	.cfi_offset %rbx, -48
	.cfi_offset %r12, -40
	.cfi_offset %r14, -32
	.cfi_offset %r15, -24
	movq	%rdx, %r14
	movq	%rsi, %r15
	movq	%rdi, %rbx
	movl	$274, __profile__funcID # imm = 0x112
	callq	__profile__record_time_begin
	movq	%rax, %r12
	movq	%rbx, -56(%rbp)
	movq	%r15, -48(%rbp)
	movq	%r14, -40(%rbp)
	movq	-56(%rbp), %rdi
	movq	-48(%rbp), %rsi
	movq	-40(%rbp), %rdx
	callq	mpi_comm_test_inter_
	movabsq	$.L__unnamed_149, %rdi
	movq	%r12, %rsi
	callq	__profile__record_time_end
	addq	$64, %rsp
	popq	%rbx
	popq	%r12
	popq	%r14
	popq	%r15
	popq	%rbp
	.cfi_def_cfa %rsp, 8
	retq
.Lfunc_end148:
	.size	MPI_COMM_TEST_INTER_, .Lfunc_end148-MPI_COMM_TEST_INTER_
	.cfi_endproc
                                        # -- End function
	.globl	mpi_comm_test_inter     # -- Begin function mpi_comm_test_inter
	.p2align	4, 0x90
	.type	mpi_comm_test_inter,@function
mpi_comm_test_inter:                    # @mpi_comm_test_inter
	.cfi_startproc
# %bb.0:                                # %entry
	pushq	%rbp
	.cfi_def_cfa_offset 16
	.cfi_offset %rbp, -16
	movq	%rsp, %rbp
	.cfi_def_cfa_register %rbp
	pushq	%r15
	pushq	%r14
	pushq	%r12
	pushq	%rbx
	subq	$64, %rsp
	.cfi_offset %rbx, -48
	.cfi_offset %r12, -40
	.cfi_offset %r14, -32
	.cfi_offset %r15, -24
	movq	%rdx, %r14
	movq	%rsi, %r15
	movq	%rdi, %rbx
	movl	$275, __profile__funcID # imm = 0x113
	callq	__profile__record_time_begin
	movq	%rax, %r12
	movq	%rbx, -56(%rbp)
	movq	%r15, -48(%rbp)
	movq	%r14, -40(%rbp)
	movq	-56(%rbp), %rdi
	movq	-48(%rbp), %rsi
	movq	-40(%rbp), %rdx
	callq	mpi_comm_test_inter_
	movabsq	$.L__unnamed_150, %rdi
	movq	%r12, %rsi
	callq	__profile__record_time_end
	addq	$64, %rsp
	popq	%rbx
	popq	%r12
	popq	%r14
	popq	%r15
	popq	%rbp
	.cfi_def_cfa %rsp, 8
	retq
.Lfunc_end149:
	.size	mpi_comm_test_inter, .Lfunc_end149-mpi_comm_test_inter
	.cfi_endproc
                                        # -- End function
	.globl	mpi_group_compare_      # -- Begin function mpi_group_compare_
	.p2align	4, 0x90
	.type	mpi_group_compare_,@function
mpi_group_compare_:                     # @mpi_group_compare_
	.cfi_startproc
# %bb.0:                                # %entry
	pushq	%rbp
	.cfi_def_cfa_offset 16
	.cfi_offset %rbp, -16
	movq	%rsp, %rbp
	.cfi_def_cfa_register %rbp
	pushq	%r15
	pushq	%r14
	pushq	%r13
	pushq	%r12
	pushq	%rbx
	subq	$72, %rsp
	.cfi_offset %rbx, -56
	.cfi_offset %r12, -48
	.cfi_offset %r13, -40
	.cfi_offset %r14, -32
	.cfi_offset %r15, -24
	movq	%rcx, %r14
	movq	%rdx, %r15
	movq	%rsi, %r12
	movq	%rdi, %rbx
	movl	$276, __profile__funcID # imm = 0x114
	callq	__profile__record_time_begin
	movq	%rax, %r13
	movq	%rbx, -72(%rbp)
	movq	%r12, -64(%rbp)
	movq	%r15, -56(%rbp)
	movq	%r14, -48(%rbp)
	movq	-72(%rbp), %rax
	movl	(%rax), %edi
	movq	-64(%rbp), %rax
	movl	(%rax), %esi
	movq	-56(%rbp), %rdx
	callq	MPI_Group_compare
	movq	-48(%rbp), %rcx
	movl	%eax, (%rcx)
	movabsq	$.L__unnamed_151, %rdi
	movq	%r13, %rsi
	callq	__profile__record_time_end
	addq	$72, %rsp
	popq	%rbx
	popq	%r12
	popq	%r13
	popq	%r14
	popq	%r15
	popq	%rbp
	.cfi_def_cfa %rsp, 8
	retq
.Lfunc_end150:
	.size	mpi_group_compare_, .Lfunc_end150-mpi_group_compare_
	.cfi_endproc
                                        # -- End function
	.globl	mpi_group_compare__     # -- Begin function mpi_group_compare__
	.p2align	4, 0x90
	.type	mpi_group_compare__,@function
mpi_group_compare__:                    # @mpi_group_compare__
	.cfi_startproc
# %bb.0:                                # %entry
	pushq	%rbp
	.cfi_def_cfa_offset 16
	.cfi_offset %rbp, -16
	movq	%rsp, %rbp
	.cfi_def_cfa_register %rbp
	pushq	%r15
	pushq	%r14
	pushq	%r13
	pushq	%r12
	pushq	%rbx
	subq	$72, %rsp
	.cfi_offset %rbx, -56
	.cfi_offset %r12, -48
	.cfi_offset %r13, -40
	.cfi_offset %r14, -32
	.cfi_offset %r15, -24
	movq	%rcx, %r14
	movq	%rdx, %r15
	movq	%rsi, %r12
	movq	%rdi, %rbx
	movl	$277, __profile__funcID # imm = 0x115
	callq	__profile__record_time_begin
	movq	%rax, %r13
	movq	%rbx, -72(%rbp)
	movq	%r12, -64(%rbp)
	movq	%r15, -56(%rbp)
	movq	%r14, -48(%rbp)
	movq	-72(%rbp), %rdi
	movq	-64(%rbp), %rsi
	movq	-56(%rbp), %rdx
	movq	-48(%rbp), %rcx
	callq	mpi_group_compare_
	movabsq	$.L__unnamed_152, %rdi
	movq	%r13, %rsi
	callq	__profile__record_time_end
	addq	$72, %rsp
	popq	%rbx
	popq	%r12
	popq	%r13
	popq	%r14
	popq	%r15
	popq	%rbp
	.cfi_def_cfa %rsp, 8
	retq
.Lfunc_end151:
	.size	mpi_group_compare__, .Lfunc_end151-mpi_group_compare__
	.cfi_endproc
                                        # -- End function
	.globl	MPI_GROUP_COMPARE       # -- Begin function MPI_GROUP_COMPARE
	.p2align	4, 0x90
	.type	MPI_GROUP_COMPARE,@function
MPI_GROUP_COMPARE:                      # @MPI_GROUP_COMPARE
	.cfi_startproc
# %bb.0:                                # %entry
	pushq	%rbp
	.cfi_def_cfa_offset 16
	.cfi_offset %rbp, -16
	movq	%rsp, %rbp
	.cfi_def_cfa_register %rbp
	pushq	%r15
	pushq	%r14
	pushq	%r13
	pushq	%r12
	pushq	%rbx
	subq	$72, %rsp
	.cfi_offset %rbx, -56
	.cfi_offset %r12, -48
	.cfi_offset %r13, -40
	.cfi_offset %r14, -32
	.cfi_offset %r15, -24
	movq	%rcx, %r14
	movq	%rdx, %r15
	movq	%rsi, %r12
	movq	%rdi, %rbx
	movl	$278, __profile__funcID # imm = 0x116
	callq	__profile__record_time_begin
	movq	%rax, %r13
	movq	%rbx, -72(%rbp)
	movq	%r12, -64(%rbp)
	movq	%r15, -56(%rbp)
	movq	%r14, -48(%rbp)
	movq	-72(%rbp), %rdi
	movq	-64(%rbp), %rsi
	movq	-56(%rbp), %rdx
	movq	-48(%rbp), %rcx
	callq	mpi_group_compare_
	movabsq	$.L__unnamed_153, %rdi
	movq	%r13, %rsi
	callq	__profile__record_time_end
	addq	$72, %rsp
	popq	%rbx
	popq	%r12
	popq	%r13
	popq	%r14
	popq	%r15
	popq	%rbp
	.cfi_def_cfa %rsp, 8
	retq
.Lfunc_end152:
	.size	MPI_GROUP_COMPARE, .Lfunc_end152-MPI_GROUP_COMPARE
	.cfi_endproc
                                        # -- End function
	.globl	MPI_GROUP_COMPARE_      # -- Begin function MPI_GROUP_COMPARE_
	.p2align	4, 0x90
	.type	MPI_GROUP_COMPARE_,@function
MPI_GROUP_COMPARE_:                     # @MPI_GROUP_COMPARE_
	.cfi_startproc
# %bb.0:                                # %entry
	pushq	%rbp
	.cfi_def_cfa_offset 16
	.cfi_offset %rbp, -16
	movq	%rsp, %rbp
	.cfi_def_cfa_register %rbp
	pushq	%r15
	pushq	%r14
	pushq	%r13
	pushq	%r12
	pushq	%rbx
	subq	$72, %rsp
	.cfi_offset %rbx, -56
	.cfi_offset %r12, -48
	.cfi_offset %r13, -40
	.cfi_offset %r14, -32
	.cfi_offset %r15, -24
	movq	%rcx, %r14
	movq	%rdx, %r15
	movq	%rsi, %r12
	movq	%rdi, %rbx
	movl	$279, __profile__funcID # imm = 0x117
	callq	__profile__record_time_begin
	movq	%rax, %r13
	movq	%rbx, -72(%rbp)
	movq	%r12, -64(%rbp)
	movq	%r15, -56(%rbp)
	movq	%r14, -48(%rbp)
	movq	-72(%rbp), %rdi
	movq	-64(%rbp), %rsi
	movq	-56(%rbp), %rdx
	movq	-48(%rbp), %rcx
	callq	mpi_group_compare_
	movabsq	$.L__unnamed_154, %rdi
	movq	%r13, %rsi
	callq	__profile__record_time_end
	addq	$72, %rsp
	popq	%rbx
	popq	%r12
	popq	%r13
	popq	%r14
	popq	%r15
	popq	%rbp
	.cfi_def_cfa %rsp, 8
	retq
.Lfunc_end153:
	.size	MPI_GROUP_COMPARE_, .Lfunc_end153-MPI_GROUP_COMPARE_
	.cfi_endproc
                                        # -- End function
	.globl	mpi_group_compare       # -- Begin function mpi_group_compare
	.p2align	4, 0x90
	.type	mpi_group_compare,@function
mpi_group_compare:                      # @mpi_group_compare
	.cfi_startproc
# %bb.0:                                # %entry
	pushq	%rbp
	.cfi_def_cfa_offset 16
	.cfi_offset %rbp, -16
	movq	%rsp, %rbp
	.cfi_def_cfa_register %rbp
	pushq	%r15
	pushq	%r14
	pushq	%r13
	pushq	%r12
	pushq	%rbx
	subq	$72, %rsp
	.cfi_offset %rbx, -56
	.cfi_offset %r12, -48
	.cfi_offset %r13, -40
	.cfi_offset %r14, -32
	.cfi_offset %r15, -24
	movq	%rcx, %r14
	movq	%rdx, %r15
	movq	%rsi, %r12
	movq	%rdi, %rbx
	movl	$280, __profile__funcID # imm = 0x118
	callq	__profile__record_time_begin
	movq	%rax, %r13
	movq	%rbx, -72(%rbp)
	movq	%r12, -64(%rbp)
	movq	%r15, -56(%rbp)
	movq	%r14, -48(%rbp)
	movq	-72(%rbp), %rdi
	movq	-64(%rbp), %rsi
	movq	-56(%rbp), %rdx
	movq	-48(%rbp), %rcx
	callq	mpi_group_compare_
	movabsq	$.L__unnamed_155, %rdi
	movq	%r13, %rsi
	callq	__profile__record_time_end
	addq	$72, %rsp
	popq	%rbx
	popq	%r12
	popq	%r13
	popq	%r14
	popq	%r15
	popq	%rbp
	.cfi_def_cfa %rsp, 8
	retq
.Lfunc_end154:
	.size	mpi_group_compare, .Lfunc_end154-mpi_group_compare
	.cfi_endproc
                                        # -- End function
	.globl	mpi_group_difference_   # -- Begin function mpi_group_difference_
	.p2align	4, 0x90
	.type	mpi_group_difference_,@function
mpi_group_difference_:                  # @mpi_group_difference_
	.cfi_startproc
# %bb.0:                                # %entry
	pushq	%rbp
	.cfi_def_cfa_offset 16
	.cfi_offset %rbp, -16
	movq	%rsp, %rbp
	.cfi_def_cfa_register %rbp
	pushq	%r15
	pushq	%r14
	pushq	%r13
	pushq	%r12
	pushq	%rbx
	subq	$88, %rsp
	.cfi_offset %rbx, -56
	.cfi_offset %r12, -48
	.cfi_offset %r13, -40
	.cfi_offset %r14, -32
	.cfi_offset %r15, -24
	movq	%rcx, %r14
	movq	%rdx, %r15
	movq	%rsi, %r12
	movq	%rdi, %rbx
	movl	$281, __profile__funcID # imm = 0x119
	callq	__profile__record_time_begin
	movq	%rax, %r13
	movq	%rbx, -80(%rbp)
	movq	%r12, -72(%rbp)
	movq	%r15, -64(%rbp)
	movq	%r14, -56(%rbp)
	movq	-80(%rbp), %rax
	movl	(%rax), %edi
	movq	-72(%rbp), %rax
	movl	(%rax), %esi
	leaq	-44(%rbp), %rdx
	callq	MPI_Group_difference
	movq	-56(%rbp), %rcx
	movl	%eax, (%rcx)
	movl	-44(%rbp), %eax
	movq	-64(%rbp), %rcx
	movl	%eax, (%rcx)
	movabsq	$.L__unnamed_156, %rdi
	movq	%r13, %rsi
	callq	__profile__record_time_end
	addq	$88, %rsp
	popq	%rbx
	popq	%r12
	popq	%r13
	popq	%r14
	popq	%r15
	popq	%rbp
	.cfi_def_cfa %rsp, 8
	retq
.Lfunc_end155:
	.size	mpi_group_difference_, .Lfunc_end155-mpi_group_difference_
	.cfi_endproc
                                        # -- End function
	.globl	mpi_group_difference__  # -- Begin function mpi_group_difference__
	.p2align	4, 0x90
	.type	mpi_group_difference__,@function
mpi_group_difference__:                 # @mpi_group_difference__
	.cfi_startproc
# %bb.0:                                # %entry
	pushq	%rbp
	.cfi_def_cfa_offset 16
	.cfi_offset %rbp, -16
	movq	%rsp, %rbp
	.cfi_def_cfa_register %rbp
	pushq	%r15
	pushq	%r14
	pushq	%r13
	pushq	%r12
	pushq	%rbx
	subq	$72, %rsp
	.cfi_offset %rbx, -56
	.cfi_offset %r12, -48
	.cfi_offset %r13, -40
	.cfi_offset %r14, -32
	.cfi_offset %r15, -24
	movq	%rcx, %r14
	movq	%rdx, %r15
	movq	%rsi, %r12
	movq	%rdi, %rbx
	movl	$282, __profile__funcID # imm = 0x11A
	callq	__profile__record_time_begin
	movq	%rax, %r13
	movq	%rbx, -72(%rbp)
	movq	%r12, -64(%rbp)
	movq	%r15, -56(%rbp)
	movq	%r14, -48(%rbp)
	movq	-72(%rbp), %rdi
	movq	-64(%rbp), %rsi
	movq	-56(%rbp), %rdx
	movq	-48(%rbp), %rcx
	callq	mpi_group_difference_
	movabsq	$.L__unnamed_157, %rdi
	movq	%r13, %rsi
	callq	__profile__record_time_end
	addq	$72, %rsp
	popq	%rbx
	popq	%r12
	popq	%r13
	popq	%r14
	popq	%r15
	popq	%rbp
	.cfi_def_cfa %rsp, 8
	retq
.Lfunc_end156:
	.size	mpi_group_difference__, .Lfunc_end156-mpi_group_difference__
	.cfi_endproc
                                        # -- End function
	.globl	MPI_GROUP_DIFFERENCE    # -- Begin function MPI_GROUP_DIFFERENCE
	.p2align	4, 0x90
	.type	MPI_GROUP_DIFFERENCE,@function
MPI_GROUP_DIFFERENCE:                   # @MPI_GROUP_DIFFERENCE
	.cfi_startproc
# %bb.0:                                # %entry
	pushq	%rbp
	.cfi_def_cfa_offset 16
	.cfi_offset %rbp, -16
	movq	%rsp, %rbp
	.cfi_def_cfa_register %rbp
	pushq	%r15
	pushq	%r14
	pushq	%r13
	pushq	%r12
	pushq	%rbx
	subq	$72, %rsp
	.cfi_offset %rbx, -56
	.cfi_offset %r12, -48
	.cfi_offset %r13, -40
	.cfi_offset %r14, -32
	.cfi_offset %r15, -24
	movq	%rcx, %r14
	movq	%rdx, %r15
	movq	%rsi, %r12
	movq	%rdi, %rbx
	movl	$283, __profile__funcID # imm = 0x11B
	callq	__profile__record_time_begin
	movq	%rax, %r13
	movq	%rbx, -72(%rbp)
	movq	%r12, -64(%rbp)
	movq	%r15, -56(%rbp)
	movq	%r14, -48(%rbp)
	movq	-72(%rbp), %rdi
	movq	-64(%rbp), %rsi
	movq	-56(%rbp), %rdx
	movq	-48(%rbp), %rcx
	callq	mpi_group_difference_
	movabsq	$.L__unnamed_158, %rdi
	movq	%r13, %rsi
	callq	__profile__record_time_end
	addq	$72, %rsp
	popq	%rbx
	popq	%r12
	popq	%r13
	popq	%r14
	popq	%r15
	popq	%rbp
	.cfi_def_cfa %rsp, 8
	retq
.Lfunc_end157:
	.size	MPI_GROUP_DIFFERENCE, .Lfunc_end157-MPI_GROUP_DIFFERENCE
	.cfi_endproc
                                        # -- End function
	.globl	MPI_GROUP_DIFFERENCE_   # -- Begin function MPI_GROUP_DIFFERENCE_
	.p2align	4, 0x90
	.type	MPI_GROUP_DIFFERENCE_,@function
MPI_GROUP_DIFFERENCE_:                  # @MPI_GROUP_DIFFERENCE_
	.cfi_startproc
# %bb.0:                                # %entry
	pushq	%rbp
	.cfi_def_cfa_offset 16
	.cfi_offset %rbp, -16
	movq	%rsp, %rbp
	.cfi_def_cfa_register %rbp
	pushq	%r15
	pushq	%r14
	pushq	%r13
	pushq	%r12
	pushq	%rbx
	subq	$72, %rsp
	.cfi_offset %rbx, -56
	.cfi_offset %r12, -48
	.cfi_offset %r13, -40
	.cfi_offset %r14, -32
	.cfi_offset %r15, -24
	movq	%rcx, %r14
	movq	%rdx, %r15
	movq	%rsi, %r12
	movq	%rdi, %rbx
	movl	$284, __profile__funcID # imm = 0x11C
	callq	__profile__record_time_begin
	movq	%rax, %r13
	movq	%rbx, -72(%rbp)
	movq	%r12, -64(%rbp)
	movq	%r15, -56(%rbp)
	movq	%r14, -48(%rbp)
	movq	-72(%rbp), %rdi
	movq	-64(%rbp), %rsi
	movq	-56(%rbp), %rdx
	movq	-48(%rbp), %rcx
	callq	mpi_group_difference_
	movabsq	$.L__unnamed_159, %rdi
	movq	%r13, %rsi
	callq	__profile__record_time_end
	addq	$72, %rsp
	popq	%rbx
	popq	%r12
	popq	%r13
	popq	%r14
	popq	%r15
	popq	%rbp
	.cfi_def_cfa %rsp, 8
	retq
.Lfunc_end158:
	.size	MPI_GROUP_DIFFERENCE_, .Lfunc_end158-MPI_GROUP_DIFFERENCE_
	.cfi_endproc
                                        # -- End function
	.globl	mpi_group_difference    # -- Begin function mpi_group_difference
	.p2align	4, 0x90
	.type	mpi_group_difference,@function
mpi_group_difference:                   # @mpi_group_difference
	.cfi_startproc
# %bb.0:                                # %entry
	pushq	%rbp
	.cfi_def_cfa_offset 16
	.cfi_offset %rbp, -16
	movq	%rsp, %rbp
	.cfi_def_cfa_register %rbp
	pushq	%r15
	pushq	%r14
	pushq	%r13
	pushq	%r12
	pushq	%rbx
	subq	$72, %rsp
	.cfi_offset %rbx, -56
	.cfi_offset %r12, -48
	.cfi_offset %r13, -40
	.cfi_offset %r14, -32
	.cfi_offset %r15, -24
	movq	%rcx, %r14
	movq	%rdx, %r15
	movq	%rsi, %r12
	movq	%rdi, %rbx
	movl	$285, __profile__funcID # imm = 0x11D
	callq	__profile__record_time_begin
	movq	%rax, %r13
	movq	%rbx, -72(%rbp)
	movq	%r12, -64(%rbp)
	movq	%r15, -56(%rbp)
	movq	%r14, -48(%rbp)
	movq	-72(%rbp), %rdi
	movq	-64(%rbp), %rsi
	movq	-56(%rbp), %rdx
	movq	-48(%rbp), %rcx
	callq	mpi_group_difference_
	movabsq	$.L__unnamed_160, %rdi
	movq	%r13, %rsi
	callq	__profile__record_time_end
	addq	$72, %rsp
	popq	%rbx
	popq	%r12
	popq	%r13
	popq	%r14
	popq	%r15
	popq	%rbp
	.cfi_def_cfa %rsp, 8
	retq
.Lfunc_end159:
	.size	mpi_group_difference, .Lfunc_end159-mpi_group_difference
	.cfi_endproc
                                        # -- End function
	.globl	mpi_group_excl_         # -- Begin function mpi_group_excl_
	.p2align	4, 0x90
	.type	mpi_group_excl_,@function
mpi_group_excl_:                        # @mpi_group_excl_
	.cfi_startproc
# %bb.0:                                # %entry
	pushq	%rbp
	.cfi_def_cfa_offset 16
	.cfi_offset %rbp, -16
	movq	%rsp, %rbp
	.cfi_def_cfa_register %rbp
	pushq	%r15
	pushq	%r14
	pushq	%r13
	pushq	%r12
	pushq	%rbx
	subq	$104, %rsp
	.cfi_offset %rbx, -56
	.cfi_offset %r12, -48
	.cfi_offset %r13, -40
	.cfi_offset %r14, -32
	.cfi_offset %r15, -24
	movq	%r8, %r14
	movq	%rcx, %r15
	movq	%rdx, %r12
	movq	%rsi, %r13
	movq	%rdi, %rbx
	movl	$286, __profile__funcID # imm = 0x11E
	callq	__profile__record_time_begin
	movq	%rax, -56(%rbp)         # 8-byte Spill
	movq	%rbx, -96(%rbp)
	movq	%r13, -88(%rbp)
	movq	%r12, -80(%rbp)
	movq	%r15, -72(%rbp)
	movq	%r14, -64(%rbp)
	movq	-96(%rbp), %rax
	movl	(%rax), %edi
	movq	-88(%rbp), %rax
	movl	(%rax), %esi
	movq	-80(%rbp), %rdx
	leaq	-44(%rbp), %rcx
	callq	MPI_Group_excl
	movq	-64(%rbp), %rcx
	movl	%eax, (%rcx)
	movl	-44(%rbp), %eax
	movq	-72(%rbp), %rcx
	movl	%eax, (%rcx)
	movabsq	$.L__unnamed_161, %rdi
	movq	-56(%rbp), %rsi         # 8-byte Reload
	callq	__profile__record_time_end
	addq	$104, %rsp
	popq	%rbx
	popq	%r12
	popq	%r13
	popq	%r14
	popq	%r15
	popq	%rbp
	.cfi_def_cfa %rsp, 8
	retq
.Lfunc_end160:
	.size	mpi_group_excl_, .Lfunc_end160-mpi_group_excl_
	.cfi_endproc
                                        # -- End function
	.globl	mpi_group_excl__        # -- Begin function mpi_group_excl__
	.p2align	4, 0x90
	.type	mpi_group_excl__,@function
mpi_group_excl__:                       # @mpi_group_excl__
	.cfi_startproc
# %bb.0:                                # %entry
	pushq	%rbp
	.cfi_def_cfa_offset 16
	.cfi_offset %rbp, -16
	movq	%rsp, %rbp
	.cfi_def_cfa_register %rbp
	pushq	%r15
	pushq	%r14
	pushq	%r13
	pushq	%r12
	pushq	%rbx
	subq	$88, %rsp
	.cfi_offset %rbx, -56
	.cfi_offset %r12, -48
	.cfi_offset %r13, -40
	.cfi_offset %r14, -32
	.cfi_offset %r15, -24
	movq	%r8, %r14
	movq	%rcx, %r15
	movq	%rdx, %r12
	movq	%rsi, %r13
	movq	%rdi, %rbx
	movl	$287, __profile__funcID # imm = 0x11F
	callq	__profile__record_time_begin
	movq	%rax, -48(%rbp)         # 8-byte Spill
	movq	%rbx, -88(%rbp)
	movq	%r13, -80(%rbp)
	movq	%r12, -72(%rbp)
	movq	%r15, -64(%rbp)
	movq	%r14, -56(%rbp)
	movq	-88(%rbp), %rdi
	movq	-80(%rbp), %rsi
	movq	-72(%rbp), %rdx
	movq	-64(%rbp), %rcx
	movq	-56(%rbp), %r8
	callq	mpi_group_excl_
	movabsq	$.L__unnamed_162, %rdi
	movq	-48(%rbp), %rsi         # 8-byte Reload
	callq	__profile__record_time_end
	addq	$88, %rsp
	popq	%rbx
	popq	%r12
	popq	%r13
	popq	%r14
	popq	%r15
	popq	%rbp
	.cfi_def_cfa %rsp, 8
	retq
.Lfunc_end161:
	.size	mpi_group_excl__, .Lfunc_end161-mpi_group_excl__
	.cfi_endproc
                                        # -- End function
	.globl	MPI_GROUP_EXCL          # -- Begin function MPI_GROUP_EXCL
	.p2align	4, 0x90
	.type	MPI_GROUP_EXCL,@function
MPI_GROUP_EXCL:                         # @MPI_GROUP_EXCL
	.cfi_startproc
# %bb.0:                                # %entry
	pushq	%rbp
	.cfi_def_cfa_offset 16
	.cfi_offset %rbp, -16
	movq	%rsp, %rbp
	.cfi_def_cfa_register %rbp
	pushq	%r15
	pushq	%r14
	pushq	%r13
	pushq	%r12
	pushq	%rbx
	subq	$88, %rsp
	.cfi_offset %rbx, -56
	.cfi_offset %r12, -48
	.cfi_offset %r13, -40
	.cfi_offset %r14, -32
	.cfi_offset %r15, -24
	movq	%r8, %r14
	movq	%rcx, %r15
	movq	%rdx, %r12
	movq	%rsi, %r13
	movq	%rdi, %rbx
	movl	$288, __profile__funcID # imm = 0x120
	callq	__profile__record_time_begin
	movq	%rax, -48(%rbp)         # 8-byte Spill
	movq	%rbx, -88(%rbp)
	movq	%r13, -80(%rbp)
	movq	%r12, -72(%rbp)
	movq	%r15, -64(%rbp)
	movq	%r14, -56(%rbp)
	movq	-88(%rbp), %rdi
	movq	-80(%rbp), %rsi
	movq	-72(%rbp), %rdx
	movq	-64(%rbp), %rcx
	movq	-56(%rbp), %r8
	callq	mpi_group_excl_
	movabsq	$.L__unnamed_163, %rdi
	movq	-48(%rbp), %rsi         # 8-byte Reload
	callq	__profile__record_time_end
	addq	$88, %rsp
	popq	%rbx
	popq	%r12
	popq	%r13
	popq	%r14
	popq	%r15
	popq	%rbp
	.cfi_def_cfa %rsp, 8
	retq
.Lfunc_end162:
	.size	MPI_GROUP_EXCL, .Lfunc_end162-MPI_GROUP_EXCL
	.cfi_endproc
                                        # -- End function
	.globl	MPI_GROUP_EXCL_         # -- Begin function MPI_GROUP_EXCL_
	.p2align	4, 0x90
	.type	MPI_GROUP_EXCL_,@function
MPI_GROUP_EXCL_:                        # @MPI_GROUP_EXCL_
	.cfi_startproc
# %bb.0:                                # %entry
	pushq	%rbp
	.cfi_def_cfa_offset 16
	.cfi_offset %rbp, -16
	movq	%rsp, %rbp
	.cfi_def_cfa_register %rbp
	pushq	%r15
	pushq	%r14
	pushq	%r13
	pushq	%r12
	pushq	%rbx
	subq	$88, %rsp
	.cfi_offset %rbx, -56
	.cfi_offset %r12, -48
	.cfi_offset %r13, -40
	.cfi_offset %r14, -32
	.cfi_offset %r15, -24
	movq	%r8, %r14
	movq	%rcx, %r15
	movq	%rdx, %r12
	movq	%rsi, %r13
	movq	%rdi, %rbx
	movl	$289, __profile__funcID # imm = 0x121
	callq	__profile__record_time_begin
	movq	%rax, -48(%rbp)         # 8-byte Spill
	movq	%rbx, -88(%rbp)
	movq	%r13, -80(%rbp)
	movq	%r12, -72(%rbp)
	movq	%r15, -64(%rbp)
	movq	%r14, -56(%rbp)
	movq	-88(%rbp), %rdi
	movq	-80(%rbp), %rsi
	movq	-72(%rbp), %rdx
	movq	-64(%rbp), %rcx
	movq	-56(%rbp), %r8
	callq	mpi_group_excl_
	movabsq	$.L__unnamed_164, %rdi
	movq	-48(%rbp), %rsi         # 8-byte Reload
	callq	__profile__record_time_end
	addq	$88, %rsp
	popq	%rbx
	popq	%r12
	popq	%r13
	popq	%r14
	popq	%r15
	popq	%rbp
	.cfi_def_cfa %rsp, 8
	retq
.Lfunc_end163:
	.size	MPI_GROUP_EXCL_, .Lfunc_end163-MPI_GROUP_EXCL_
	.cfi_endproc
                                        # -- End function
	.globl	mpi_group_excl          # -- Begin function mpi_group_excl
	.p2align	4, 0x90
	.type	mpi_group_excl,@function
mpi_group_excl:                         # @mpi_group_excl
	.cfi_startproc
# %bb.0:                                # %entry
	pushq	%rbp
	.cfi_def_cfa_offset 16
	.cfi_offset %rbp, -16
	movq	%rsp, %rbp
	.cfi_def_cfa_register %rbp
	pushq	%r15
	pushq	%r14
	pushq	%r13
	pushq	%r12
	pushq	%rbx
	subq	$88, %rsp
	.cfi_offset %rbx, -56
	.cfi_offset %r12, -48
	.cfi_offset %r13, -40
	.cfi_offset %r14, -32
	.cfi_offset %r15, -24
	movq	%r8, %r14
	movq	%rcx, %r15
	movq	%rdx, %r12
	movq	%rsi, %r13
	movq	%rdi, %rbx
	movl	$290, __profile__funcID # imm = 0x122
	callq	__profile__record_time_begin
	movq	%rax, -48(%rbp)         # 8-byte Spill
	movq	%rbx, -88(%rbp)
	movq	%r13, -80(%rbp)
	movq	%r12, -72(%rbp)
	movq	%r15, -64(%rbp)
	movq	%r14, -56(%rbp)
	movq	-88(%rbp), %rdi
	movq	-80(%rbp), %rsi
	movq	-72(%rbp), %rdx
	movq	-64(%rbp), %rcx
	movq	-56(%rbp), %r8
	callq	mpi_group_excl_
	movabsq	$.L__unnamed_165, %rdi
	movq	-48(%rbp), %rsi         # 8-byte Reload
	callq	__profile__record_time_end
	addq	$88, %rsp
	popq	%rbx
	popq	%r12
	popq	%r13
	popq	%r14
	popq	%r15
	popq	%rbp
	.cfi_def_cfa %rsp, 8
	retq
.Lfunc_end164:
	.size	mpi_group_excl, .Lfunc_end164-mpi_group_excl
	.cfi_endproc
                                        # -- End function
	.globl	mpi_group_free_         # -- Begin function mpi_group_free_
	.p2align	4, 0x90
	.type	mpi_group_free_,@function
mpi_group_free_:                        # @mpi_group_free_
	.cfi_startproc
# %bb.0:                                # %entry
	pushq	%rbp
	.cfi_def_cfa_offset 16
	.cfi_offset %rbp, -16
	movq	%rsp, %rbp
	.cfi_def_cfa_register %rbp
	pushq	%r15
	pushq	%r14
	pushq	%rbx
	subq	$72, %rsp
	.cfi_offset %rbx, -40
	.cfi_offset %r14, -32
	.cfi_offset %r15, -24
	movq	%rsi, %r14
	movq	%rdi, %rbx
	movl	$291, __profile__funcID # imm = 0x123
	callq	__profile__record_time_begin
	movq	%rax, %r15
	movq	%rbx, -40(%rbp)
	movq	%r14, -48(%rbp)
	movq	-40(%rbp), %rax
	movl	(%rax), %eax
	movl	%eax, -28(%rbp)
	leaq	-28(%rbp), %rdi
	callq	MPI_Group_free
	movq	-48(%rbp), %rcx
	movl	%eax, (%rcx)
	movl	-28(%rbp), %eax
	movq	-40(%rbp), %rcx
	movl	%eax, (%rcx)
	movabsq	$.L__unnamed_166, %rdi
	movq	%r15, %rsi
	callq	__profile__record_time_end
	addq	$72, %rsp
	popq	%rbx
	popq	%r14
	popq	%r15
	popq	%rbp
	.cfi_def_cfa %rsp, 8
	retq
.Lfunc_end165:
	.size	mpi_group_free_, .Lfunc_end165-mpi_group_free_
	.cfi_endproc
                                        # -- End function
	.globl	mpi_group_free__        # -- Begin function mpi_group_free__
	.p2align	4, 0x90
	.type	mpi_group_free__,@function
mpi_group_free__:                       # @mpi_group_free__
	.cfi_startproc
# %bb.0:                                # %entry
	pushq	%rbp
	.cfi_def_cfa_offset 16
	.cfi_offset %rbp, -16
	movq	%rsp, %rbp
	.cfi_def_cfa_register %rbp
	pushq	%r15
	pushq	%r14
	pushq	%rbx
	subq	$56, %rsp
	.cfi_offset %rbx, -40
	.cfi_offset %r14, -32
	.cfi_offset %r15, -24
	movq	%rsi, %r14
	movq	%rdi, %rbx
	movl	$292, __profile__funcID # imm = 0x124
	callq	__profile__record_time_begin
	movq	%rax, %r15
	movq	%rbx, -40(%rbp)
	movq	%r14, -32(%rbp)
	movq	-40(%rbp), %rdi
	movq	-32(%rbp), %rsi
	callq	mpi_group_free_
	movabsq	$.L__unnamed_167, %rdi
	movq	%r15, %rsi
	callq	__profile__record_time_end
	addq	$56, %rsp
	popq	%rbx
	popq	%r14
	popq	%r15
	popq	%rbp
	.cfi_def_cfa %rsp, 8
	retq
.Lfunc_end166:
	.size	mpi_group_free__, .Lfunc_end166-mpi_group_free__
	.cfi_endproc
                                        # -- End function
	.globl	MPI_GROUP_FREE          # -- Begin function MPI_GROUP_FREE
	.p2align	4, 0x90
	.type	MPI_GROUP_FREE,@function
MPI_GROUP_FREE:                         # @MPI_GROUP_FREE
	.cfi_startproc
# %bb.0:                                # %entry
	pushq	%rbp
	.cfi_def_cfa_offset 16
	.cfi_offset %rbp, -16
	movq	%rsp, %rbp
	.cfi_def_cfa_register %rbp
	pushq	%r15
	pushq	%r14
	pushq	%rbx
	subq	$56, %rsp
	.cfi_offset %rbx, -40
	.cfi_offset %r14, -32
	.cfi_offset %r15, -24
	movq	%rsi, %r14
	movq	%rdi, %rbx
	movl	$293, __profile__funcID # imm = 0x125
	callq	__profile__record_time_begin
	movq	%rax, %r15
	movq	%rbx, -40(%rbp)
	movq	%r14, -32(%rbp)
	movq	-40(%rbp), %rdi
	movq	-32(%rbp), %rsi
	callq	mpi_group_free_
	movabsq	$.L__unnamed_168, %rdi
	movq	%r15, %rsi
	callq	__profile__record_time_end
	addq	$56, %rsp
	popq	%rbx
	popq	%r14
	popq	%r15
	popq	%rbp
	.cfi_def_cfa %rsp, 8
	retq
.Lfunc_end167:
	.size	MPI_GROUP_FREE, .Lfunc_end167-MPI_GROUP_FREE
	.cfi_endproc
                                        # -- End function
	.globl	MPI_GROUP_FREE_         # -- Begin function MPI_GROUP_FREE_
	.p2align	4, 0x90
	.type	MPI_GROUP_FREE_,@function
MPI_GROUP_FREE_:                        # @MPI_GROUP_FREE_
	.cfi_startproc
# %bb.0:                                # %entry
	pushq	%rbp
	.cfi_def_cfa_offset 16
	.cfi_offset %rbp, -16
	movq	%rsp, %rbp
	.cfi_def_cfa_register %rbp
	pushq	%r15
	pushq	%r14
	pushq	%rbx
	subq	$56, %rsp
	.cfi_offset %rbx, -40
	.cfi_offset %r14, -32
	.cfi_offset %r15, -24
	movq	%rsi, %r14
	movq	%rdi, %rbx
	movl	$294, __profile__funcID # imm = 0x126
	callq	__profile__record_time_begin
	movq	%rax, %r15
	movq	%rbx, -40(%rbp)
	movq	%r14, -32(%rbp)
	movq	-40(%rbp), %rdi
	movq	-32(%rbp), %rsi
	callq	mpi_group_free_
	movabsq	$.L__unnamed_169, %rdi
	movq	%r15, %rsi
	callq	__profile__record_time_end
	addq	$56, %rsp
	popq	%rbx
	popq	%r14
	popq	%r15
	popq	%rbp
	.cfi_def_cfa %rsp, 8
	retq
.Lfunc_end168:
	.size	MPI_GROUP_FREE_, .Lfunc_end168-MPI_GROUP_FREE_
	.cfi_endproc
                                        # -- End function
	.globl	mpi_group_free          # -- Begin function mpi_group_free
	.p2align	4, 0x90
	.type	mpi_group_free,@function
mpi_group_free:                         # @mpi_group_free
	.cfi_startproc
# %bb.0:                                # %entry
	pushq	%rbp
	.cfi_def_cfa_offset 16
	.cfi_offset %rbp, -16
	movq	%rsp, %rbp
	.cfi_def_cfa_register %rbp
	pushq	%r15
	pushq	%r14
	pushq	%rbx
	subq	$56, %rsp
	.cfi_offset %rbx, -40
	.cfi_offset %r14, -32
	.cfi_offset %r15, -24
	movq	%rsi, %r14
	movq	%rdi, %rbx
	movl	$295, __profile__funcID # imm = 0x127
	callq	__profile__record_time_begin
	movq	%rax, %r15
	movq	%rbx, -40(%rbp)
	movq	%r14, -32(%rbp)
	movq	-40(%rbp), %rdi
	movq	-32(%rbp), %rsi
	callq	mpi_group_free_
	movabsq	$.L__unnamed_170, %rdi
	movq	%r15, %rsi
	callq	__profile__record_time_end
	addq	$56, %rsp
	popq	%rbx
	popq	%r14
	popq	%r15
	popq	%rbp
	.cfi_def_cfa %rsp, 8
	retq
.Lfunc_end169:
	.size	mpi_group_free, .Lfunc_end169-mpi_group_free
	.cfi_endproc
                                        # -- End function
	.globl	mpi_group_incl_         # -- Begin function mpi_group_incl_
	.p2align	4, 0x90
	.type	mpi_group_incl_,@function
mpi_group_incl_:                        # @mpi_group_incl_
	.cfi_startproc
# %bb.0:                                # %entry
	pushq	%rbp
	.cfi_def_cfa_offset 16
	.cfi_offset %rbp, -16
	movq	%rsp, %rbp
	.cfi_def_cfa_register %rbp
	pushq	%r15
	pushq	%r14
	pushq	%r13
	pushq	%r12
	pushq	%rbx
	subq	$104, %rsp
	.cfi_offset %rbx, -56
	.cfi_offset %r12, -48
	.cfi_offset %r13, -40
	.cfi_offset %r14, -32
	.cfi_offset %r15, -24
	movq	%r8, %r14
	movq	%rcx, %r15
	movq	%rdx, %r12
	movq	%rsi, %r13
	movq	%rdi, %rbx
	movl	$296, __profile__funcID # imm = 0x128
	callq	__profile__record_time_begin
	movq	%rax, -56(%rbp)         # 8-byte Spill
	movq	%rbx, -96(%rbp)
	movq	%r13, -88(%rbp)
	movq	%r12, -80(%rbp)
	movq	%r15, -72(%rbp)
	movq	%r14, -64(%rbp)
	movq	-96(%rbp), %rax
	movl	(%rax), %edi
	movq	-88(%rbp), %rax
	movl	(%rax), %esi
	movq	-80(%rbp), %rdx
	leaq	-44(%rbp), %rcx
	callq	MPI_Group_incl
	movq	-64(%rbp), %rcx
	movl	%eax, (%rcx)
	movl	-44(%rbp), %eax
	movq	-72(%rbp), %rcx
	movl	%eax, (%rcx)
	movabsq	$.L__unnamed_171, %rdi
	movq	-56(%rbp), %rsi         # 8-byte Reload
	callq	__profile__record_time_end
	addq	$104, %rsp
	popq	%rbx
	popq	%r12
	popq	%r13
	popq	%r14
	popq	%r15
	popq	%rbp
	.cfi_def_cfa %rsp, 8
	retq
.Lfunc_end170:
	.size	mpi_group_incl_, .Lfunc_end170-mpi_group_incl_
	.cfi_endproc
                                        # -- End function
	.globl	mpi_group_incl__        # -- Begin function mpi_group_incl__
	.p2align	4, 0x90
	.type	mpi_group_incl__,@function
mpi_group_incl__:                       # @mpi_group_incl__
	.cfi_startproc
# %bb.0:                                # %entry
	pushq	%rbp
	.cfi_def_cfa_offset 16
	.cfi_offset %rbp, -16
	movq	%rsp, %rbp
	.cfi_def_cfa_register %rbp
	pushq	%r15
	pushq	%r14
	pushq	%r13
	pushq	%r12
	pushq	%rbx
	subq	$88, %rsp
	.cfi_offset %rbx, -56
	.cfi_offset %r12, -48
	.cfi_offset %r13, -40
	.cfi_offset %r14, -32
	.cfi_offset %r15, -24
	movq	%r8, %r14
	movq	%rcx, %r15
	movq	%rdx, %r12
	movq	%rsi, %r13
	movq	%rdi, %rbx
	movl	$297, __profile__funcID # imm = 0x129
	callq	__profile__record_time_begin
	movq	%rax, -48(%rbp)         # 8-byte Spill
	movq	%rbx, -88(%rbp)
	movq	%r13, -80(%rbp)
	movq	%r12, -72(%rbp)
	movq	%r15, -64(%rbp)
	movq	%r14, -56(%rbp)
	movq	-88(%rbp), %rdi
	movq	-80(%rbp), %rsi
	movq	-72(%rbp), %rdx
	movq	-64(%rbp), %rcx
	movq	-56(%rbp), %r8
	callq	mpi_group_incl_
	movabsq	$.L__unnamed_172, %rdi
	movq	-48(%rbp), %rsi         # 8-byte Reload
	callq	__profile__record_time_end
	addq	$88, %rsp
	popq	%rbx
	popq	%r12
	popq	%r13
	popq	%r14
	popq	%r15
	popq	%rbp
	.cfi_def_cfa %rsp, 8
	retq
.Lfunc_end171:
	.size	mpi_group_incl__, .Lfunc_end171-mpi_group_incl__
	.cfi_endproc
                                        # -- End function
	.globl	MPI_GROUP_INCL          # -- Begin function MPI_GROUP_INCL
	.p2align	4, 0x90
	.type	MPI_GROUP_INCL,@function
MPI_GROUP_INCL:                         # @MPI_GROUP_INCL
	.cfi_startproc
# %bb.0:                                # %entry
	pushq	%rbp
	.cfi_def_cfa_offset 16
	.cfi_offset %rbp, -16
	movq	%rsp, %rbp
	.cfi_def_cfa_register %rbp
	pushq	%r15
	pushq	%r14
	pushq	%r13
	pushq	%r12
	pushq	%rbx
	subq	$88, %rsp
	.cfi_offset %rbx, -56
	.cfi_offset %r12, -48
	.cfi_offset %r13, -40
	.cfi_offset %r14, -32
	.cfi_offset %r15, -24
	movq	%r8, %r14
	movq	%rcx, %r15
	movq	%rdx, %r12
	movq	%rsi, %r13
	movq	%rdi, %rbx
	movl	$298, __profile__funcID # imm = 0x12A
	callq	__profile__record_time_begin
	movq	%rax, -48(%rbp)         # 8-byte Spill
	movq	%rbx, -88(%rbp)
	movq	%r13, -80(%rbp)
	movq	%r12, -72(%rbp)
	movq	%r15, -64(%rbp)
	movq	%r14, -56(%rbp)
	movq	-88(%rbp), %rdi
	movq	-80(%rbp), %rsi
	movq	-72(%rbp), %rdx
	movq	-64(%rbp), %rcx
	movq	-56(%rbp), %r8
	callq	mpi_group_incl_
	movabsq	$.L__unnamed_173, %rdi
	movq	-48(%rbp), %rsi         # 8-byte Reload
	callq	__profile__record_time_end
	addq	$88, %rsp
	popq	%rbx
	popq	%r12
	popq	%r13
	popq	%r14
	popq	%r15
	popq	%rbp
	.cfi_def_cfa %rsp, 8
	retq
.Lfunc_end172:
	.size	MPI_GROUP_INCL, .Lfunc_end172-MPI_GROUP_INCL
	.cfi_endproc
                                        # -- End function
	.globl	MPI_GROUP_INCL_         # -- Begin function MPI_GROUP_INCL_
	.p2align	4, 0x90
	.type	MPI_GROUP_INCL_,@function
MPI_GROUP_INCL_:                        # @MPI_GROUP_INCL_
	.cfi_startproc
# %bb.0:                                # %entry
	pushq	%rbp
	.cfi_def_cfa_offset 16
	.cfi_offset %rbp, -16
	movq	%rsp, %rbp
	.cfi_def_cfa_register %rbp
	pushq	%r15
	pushq	%r14
	pushq	%r13
	pushq	%r12
	pushq	%rbx
	subq	$88, %rsp
	.cfi_offset %rbx, -56
	.cfi_offset %r12, -48
	.cfi_offset %r13, -40
	.cfi_offset %r14, -32
	.cfi_offset %r15, -24
	movq	%r8, %r14
	movq	%rcx, %r15
	movq	%rdx, %r12
	movq	%rsi, %r13
	movq	%rdi, %rbx
	movl	$299, __profile__funcID # imm = 0x12B
	callq	__profile__record_time_begin
	movq	%rax, -48(%rbp)         # 8-byte Spill
	movq	%rbx, -88(%rbp)
	movq	%r13, -80(%rbp)
	movq	%r12, -72(%rbp)
	movq	%r15, -64(%rbp)
	movq	%r14, -56(%rbp)
	movq	-88(%rbp), %rdi
	movq	-80(%rbp), %rsi
	movq	-72(%rbp), %rdx
	movq	-64(%rbp), %rcx
	movq	-56(%rbp), %r8
	callq	mpi_group_incl_
	movabsq	$.L__unnamed_174, %rdi
	movq	-48(%rbp), %rsi         # 8-byte Reload
	callq	__profile__record_time_end
	addq	$88, %rsp
	popq	%rbx
	popq	%r12
	popq	%r13
	popq	%r14
	popq	%r15
	popq	%rbp
	.cfi_def_cfa %rsp, 8
	retq
.Lfunc_end173:
	.size	MPI_GROUP_INCL_, .Lfunc_end173-MPI_GROUP_INCL_
	.cfi_endproc
                                        # -- End function
	.globl	mpi_group_incl          # -- Begin function mpi_group_incl
	.p2align	4, 0x90
	.type	mpi_group_incl,@function
mpi_group_incl:                         # @mpi_group_incl
	.cfi_startproc
# %bb.0:                                # %entry
	pushq	%rbp
	.cfi_def_cfa_offset 16
	.cfi_offset %rbp, -16
	movq	%rsp, %rbp
	.cfi_def_cfa_register %rbp
	pushq	%r15
	pushq	%r14
	pushq	%r13
	pushq	%r12
	pushq	%rbx
	subq	$88, %rsp
	.cfi_offset %rbx, -56
	.cfi_offset %r12, -48
	.cfi_offset %r13, -40
	.cfi_offset %r14, -32
	.cfi_offset %r15, -24
	movq	%r8, %r14
	movq	%rcx, %r15
	movq	%rdx, %r12
	movq	%rsi, %r13
	movq	%rdi, %rbx
	movl	$300, __profile__funcID # imm = 0x12C
	callq	__profile__record_time_begin
	movq	%rax, -48(%rbp)         # 8-byte Spill
	movq	%rbx, -88(%rbp)
	movq	%r13, -80(%rbp)
	movq	%r12, -72(%rbp)
	movq	%r15, -64(%rbp)
	movq	%r14, -56(%rbp)
	movq	-88(%rbp), %rdi
	movq	-80(%rbp), %rsi
	movq	-72(%rbp), %rdx
	movq	-64(%rbp), %rcx
	movq	-56(%rbp), %r8
	callq	mpi_group_incl_
	movabsq	$.L__unnamed_175, %rdi
	movq	-48(%rbp), %rsi         # 8-byte Reload
	callq	__profile__record_time_end
	addq	$88, %rsp
	popq	%rbx
	popq	%r12
	popq	%r13
	popq	%r14
	popq	%r15
	popq	%rbp
	.cfi_def_cfa %rsp, 8
	retq
.Lfunc_end174:
	.size	mpi_group_incl, .Lfunc_end174-mpi_group_incl
	.cfi_endproc
                                        # -- End function
	.globl	mpi_group_intersection_ # -- Begin function mpi_group_intersection_
	.p2align	4, 0x90
	.type	mpi_group_intersection_,@function
mpi_group_intersection_:                # @mpi_group_intersection_
	.cfi_startproc
# %bb.0:                                # %entry
	pushq	%rbp
	.cfi_def_cfa_offset 16
	.cfi_offset %rbp, -16
	movq	%rsp, %rbp
	.cfi_def_cfa_register %rbp
	pushq	%r15
	pushq	%r14
	pushq	%r13
	pushq	%r12
	pushq	%rbx
	subq	$88, %rsp
	.cfi_offset %rbx, -56
	.cfi_offset %r12, -48
	.cfi_offset %r13, -40
	.cfi_offset %r14, -32
	.cfi_offset %r15, -24
	movq	%rcx, %r14
	movq	%rdx, %r15
	movq	%rsi, %r12
	movq	%rdi, %rbx
	movl	$301, __profile__funcID # imm = 0x12D
	callq	__profile__record_time_begin
	movq	%rax, %r13
	movq	%rbx, -80(%rbp)
	movq	%r12, -72(%rbp)
	movq	%r15, -64(%rbp)
	movq	%r14, -56(%rbp)
	movq	-80(%rbp), %rax
	movl	(%rax), %edi
	movq	-72(%rbp), %rax
	movl	(%rax), %esi
	leaq	-44(%rbp), %rdx
	callq	MPI_Group_intersection
	movq	-56(%rbp), %rcx
	movl	%eax, (%rcx)
	movl	-44(%rbp), %eax
	movq	-64(%rbp), %rcx
	movl	%eax, (%rcx)
	movabsq	$.L__unnamed_176, %rdi
	movq	%r13, %rsi
	callq	__profile__record_time_end
	addq	$88, %rsp
	popq	%rbx
	popq	%r12
	popq	%r13
	popq	%r14
	popq	%r15
	popq	%rbp
	.cfi_def_cfa %rsp, 8
	retq
.Lfunc_end175:
	.size	mpi_group_intersection_, .Lfunc_end175-mpi_group_intersection_
	.cfi_endproc
                                        # -- End function
	.globl	mpi_group_intersection__ # -- Begin function mpi_group_intersection__
	.p2align	4, 0x90
	.type	mpi_group_intersection__,@function
mpi_group_intersection__:               # @mpi_group_intersection__
	.cfi_startproc
# %bb.0:                                # %entry
	pushq	%rbp
	.cfi_def_cfa_offset 16
	.cfi_offset %rbp, -16
	movq	%rsp, %rbp
	.cfi_def_cfa_register %rbp
	pushq	%r15
	pushq	%r14
	pushq	%r13
	pushq	%r12
	pushq	%rbx
	subq	$72, %rsp
	.cfi_offset %rbx, -56
	.cfi_offset %r12, -48
	.cfi_offset %r13, -40
	.cfi_offset %r14, -32
	.cfi_offset %r15, -24
	movq	%rcx, %r14
	movq	%rdx, %r15
	movq	%rsi, %r12
	movq	%rdi, %rbx
	movl	$302, __profile__funcID # imm = 0x12E
	callq	__profile__record_time_begin
	movq	%rax, %r13
	movq	%rbx, -72(%rbp)
	movq	%r12, -64(%rbp)
	movq	%r15, -56(%rbp)
	movq	%r14, -48(%rbp)
	movq	-72(%rbp), %rdi
	movq	-64(%rbp), %rsi
	movq	-56(%rbp), %rdx
	movq	-48(%rbp), %rcx
	callq	mpi_group_intersection_
	movabsq	$.L__unnamed_177, %rdi
	movq	%r13, %rsi
	callq	__profile__record_time_end
	addq	$72, %rsp
	popq	%rbx
	popq	%r12
	popq	%r13
	popq	%r14
	popq	%r15
	popq	%rbp
	.cfi_def_cfa %rsp, 8
	retq
.Lfunc_end176:
	.size	mpi_group_intersection__, .Lfunc_end176-mpi_group_intersection__
	.cfi_endproc
                                        # -- End function
	.globl	MPI_GROUP_INTERSECTION  # -- Begin function MPI_GROUP_INTERSECTION
	.p2align	4, 0x90
	.type	MPI_GROUP_INTERSECTION,@function
MPI_GROUP_INTERSECTION:                 # @MPI_GROUP_INTERSECTION
	.cfi_startproc
# %bb.0:                                # %entry
	pushq	%rbp
	.cfi_def_cfa_offset 16
	.cfi_offset %rbp, -16
	movq	%rsp, %rbp
	.cfi_def_cfa_register %rbp
	pushq	%r15
	pushq	%r14
	pushq	%r13
	pushq	%r12
	pushq	%rbx
	subq	$72, %rsp
	.cfi_offset %rbx, -56
	.cfi_offset %r12, -48
	.cfi_offset %r13, -40
	.cfi_offset %r14, -32
	.cfi_offset %r15, -24
	movq	%rcx, %r14
	movq	%rdx, %r15
	movq	%rsi, %r12
	movq	%rdi, %rbx
	movl	$303, __profile__funcID # imm = 0x12F
	callq	__profile__record_time_begin
	movq	%rax, %r13
	movq	%rbx, -72(%rbp)
	movq	%r12, -64(%rbp)
	movq	%r15, -56(%rbp)
	movq	%r14, -48(%rbp)
	movq	-72(%rbp), %rdi
	movq	-64(%rbp), %rsi
	movq	-56(%rbp), %rdx
	movq	-48(%rbp), %rcx
	callq	mpi_group_intersection_
	movabsq	$.L__unnamed_178, %rdi
	movq	%r13, %rsi
	callq	__profile__record_time_end
	addq	$72, %rsp
	popq	%rbx
	popq	%r12
	popq	%r13
	popq	%r14
	popq	%r15
	popq	%rbp
	.cfi_def_cfa %rsp, 8
	retq
.Lfunc_end177:
	.size	MPI_GROUP_INTERSECTION, .Lfunc_end177-MPI_GROUP_INTERSECTION
	.cfi_endproc
                                        # -- End function
	.globl	MPI_GROUP_INTERSECTION_ # -- Begin function MPI_GROUP_INTERSECTION_
	.p2align	4, 0x90
	.type	MPI_GROUP_INTERSECTION_,@function
MPI_GROUP_INTERSECTION_:                # @MPI_GROUP_INTERSECTION_
	.cfi_startproc
# %bb.0:                                # %entry
	pushq	%rbp
	.cfi_def_cfa_offset 16
	.cfi_offset %rbp, -16
	movq	%rsp, %rbp
	.cfi_def_cfa_register %rbp
	pushq	%r15
	pushq	%r14
	pushq	%r13
	pushq	%r12
	pushq	%rbx
	subq	$72, %rsp
	.cfi_offset %rbx, -56
	.cfi_offset %r12, -48
	.cfi_offset %r13, -40
	.cfi_offset %r14, -32
	.cfi_offset %r15, -24
	movq	%rcx, %r14
	movq	%rdx, %r15
	movq	%rsi, %r12
	movq	%rdi, %rbx
	movl	$304, __profile__funcID # imm = 0x130
	callq	__profile__record_time_begin
	movq	%rax, %r13
	movq	%rbx, -72(%rbp)
	movq	%r12, -64(%rbp)
	movq	%r15, -56(%rbp)
	movq	%r14, -48(%rbp)
	movq	-72(%rbp), %rdi
	movq	-64(%rbp), %rsi
	movq	-56(%rbp), %rdx
	movq	-48(%rbp), %rcx
	callq	mpi_group_intersection_
	movabsq	$.L__unnamed_179, %rdi
	movq	%r13, %rsi
	callq	__profile__record_time_end
	addq	$72, %rsp
	popq	%rbx
	popq	%r12
	popq	%r13
	popq	%r14
	popq	%r15
	popq	%rbp
	.cfi_def_cfa %rsp, 8
	retq
.Lfunc_end178:
	.size	MPI_GROUP_INTERSECTION_, .Lfunc_end178-MPI_GROUP_INTERSECTION_
	.cfi_endproc
                                        # -- End function
	.globl	mpi_group_intersection  # -- Begin function mpi_group_intersection
	.p2align	4, 0x90
	.type	mpi_group_intersection,@function
mpi_group_intersection:                 # @mpi_group_intersection
	.cfi_startproc
# %bb.0:                                # %entry
	pushq	%rbp
	.cfi_def_cfa_offset 16
	.cfi_offset %rbp, -16
	movq	%rsp, %rbp
	.cfi_def_cfa_register %rbp
	pushq	%r15
	pushq	%r14
	pushq	%r13
	pushq	%r12
	pushq	%rbx
	subq	$72, %rsp
	.cfi_offset %rbx, -56
	.cfi_offset %r12, -48
	.cfi_offset %r13, -40
	.cfi_offset %r14, -32
	.cfi_offset %r15, -24
	movq	%rcx, %r14
	movq	%rdx, %r15
	movq	%rsi, %r12
	movq	%rdi, %rbx
	movl	$305, __profile__funcID # imm = 0x131
	callq	__profile__record_time_begin
	movq	%rax, %r13
	movq	%rbx, -72(%rbp)
	movq	%r12, -64(%rbp)
	movq	%r15, -56(%rbp)
	movq	%r14, -48(%rbp)
	movq	-72(%rbp), %rdi
	movq	-64(%rbp), %rsi
	movq	-56(%rbp), %rdx
	movq	-48(%rbp), %rcx
	callq	mpi_group_intersection_
	movabsq	$.L__unnamed_180, %rdi
	movq	%r13, %rsi
	callq	__profile__record_time_end
	addq	$72, %rsp
	popq	%rbx
	popq	%r12
	popq	%r13
	popq	%r14
	popq	%r15
	popq	%rbp
	.cfi_def_cfa %rsp, 8
	retq
.Lfunc_end179:
	.size	mpi_group_intersection, .Lfunc_end179-mpi_group_intersection
	.cfi_endproc
                                        # -- End function
	.globl	mpi_group_rank_         # -- Begin function mpi_group_rank_
	.p2align	4, 0x90
	.type	mpi_group_rank_,@function
mpi_group_rank_:                        # @mpi_group_rank_
	.cfi_startproc
# %bb.0:                                # %entry
	pushq	%rbp
	.cfi_def_cfa_offset 16
	.cfi_offset %rbp, -16
	movq	%rsp, %rbp
	.cfi_def_cfa_register %rbp
	pushq	%r15
	pushq	%r14
	pushq	%r12
	pushq	%rbx
	subq	$64, %rsp
	.cfi_offset %rbx, -48
	.cfi_offset %r12, -40
	.cfi_offset %r14, -32
	.cfi_offset %r15, -24
	movq	%rdx, %r14
	movq	%rsi, %r15
	movq	%rdi, %rbx
	movl	$306, __profile__funcID # imm = 0x132
	callq	__profile__record_time_begin
	movq	%rax, %r12
	movq	%rbx, -56(%rbp)
	movq	%r15, -48(%rbp)
	movq	%r14, -40(%rbp)
	movq	-56(%rbp), %rax
	movl	(%rax), %edi
	movq	-48(%rbp), %rsi
	callq	MPI_Group_rank
	movq	-40(%rbp), %rcx
	movl	%eax, (%rcx)
	movabsq	$.L__unnamed_181, %rdi
	movq	%r12, %rsi
	callq	__profile__record_time_end
	addq	$64, %rsp
	popq	%rbx
	popq	%r12
	popq	%r14
	popq	%r15
	popq	%rbp
	.cfi_def_cfa %rsp, 8
	retq
.Lfunc_end180:
	.size	mpi_group_rank_, .Lfunc_end180-mpi_group_rank_
	.cfi_endproc
                                        # -- End function
	.globl	mpi_group_rank__        # -- Begin function mpi_group_rank__
	.p2align	4, 0x90
	.type	mpi_group_rank__,@function
mpi_group_rank__:                       # @mpi_group_rank__
	.cfi_startproc
# %bb.0:                                # %entry
	pushq	%rbp
	.cfi_def_cfa_offset 16
	.cfi_offset %rbp, -16
	movq	%rsp, %rbp
	.cfi_def_cfa_register %rbp
	pushq	%r15
	pushq	%r14
	pushq	%r12
	pushq	%rbx
	subq	$64, %rsp
	.cfi_offset %rbx, -48
	.cfi_offset %r12, -40
	.cfi_offset %r14, -32
	.cfi_offset %r15, -24
	movq	%rdx, %r14
	movq	%rsi, %r15
	movq	%rdi, %rbx
	movl	$307, __profile__funcID # imm = 0x133
	callq	__profile__record_time_begin
	movq	%rax, %r12
	movq	%rbx, -56(%rbp)
	movq	%r15, -48(%rbp)
	movq	%r14, -40(%rbp)
	movq	-56(%rbp), %rdi
	movq	-48(%rbp), %rsi
	movq	-40(%rbp), %rdx
	callq	mpi_group_rank_
	movabsq	$.L__unnamed_182, %rdi
	movq	%r12, %rsi
	callq	__profile__record_time_end
	addq	$64, %rsp
	popq	%rbx
	popq	%r12
	popq	%r14
	popq	%r15
	popq	%rbp
	.cfi_def_cfa %rsp, 8
	retq
.Lfunc_end181:
	.size	mpi_group_rank__, .Lfunc_end181-mpi_group_rank__
	.cfi_endproc
                                        # -- End function
	.globl	MPI_GROUP_RANK          # -- Begin function MPI_GROUP_RANK
	.p2align	4, 0x90
	.type	MPI_GROUP_RANK,@function
MPI_GROUP_RANK:                         # @MPI_GROUP_RANK
	.cfi_startproc
# %bb.0:                                # %entry
	pushq	%rbp
	.cfi_def_cfa_offset 16
	.cfi_offset %rbp, -16
	movq	%rsp, %rbp
	.cfi_def_cfa_register %rbp
	pushq	%r15
	pushq	%r14
	pushq	%r12
	pushq	%rbx
	subq	$64, %rsp
	.cfi_offset %rbx, -48
	.cfi_offset %r12, -40
	.cfi_offset %r14, -32
	.cfi_offset %r15, -24
	movq	%rdx, %r14
	movq	%rsi, %r15
	movq	%rdi, %rbx
	movl	$308, __profile__funcID # imm = 0x134
	callq	__profile__record_time_begin
	movq	%rax, %r12
	movq	%rbx, -56(%rbp)
	movq	%r15, -48(%rbp)
	movq	%r14, -40(%rbp)
	movq	-56(%rbp), %rdi
	movq	-48(%rbp), %rsi
	movq	-40(%rbp), %rdx
	callq	mpi_group_rank_
	movabsq	$.L__unnamed_183, %rdi
	movq	%r12, %rsi
	callq	__profile__record_time_end
	addq	$64, %rsp
	popq	%rbx
	popq	%r12
	popq	%r14
	popq	%r15
	popq	%rbp
	.cfi_def_cfa %rsp, 8
	retq
.Lfunc_end182:
	.size	MPI_GROUP_RANK, .Lfunc_end182-MPI_GROUP_RANK
	.cfi_endproc
                                        # -- End function
	.globl	MPI_GROUP_RANK_         # -- Begin function MPI_GROUP_RANK_
	.p2align	4, 0x90
	.type	MPI_GROUP_RANK_,@function
MPI_GROUP_RANK_:                        # @MPI_GROUP_RANK_
	.cfi_startproc
# %bb.0:                                # %entry
	pushq	%rbp
	.cfi_def_cfa_offset 16
	.cfi_offset %rbp, -16
	movq	%rsp, %rbp
	.cfi_def_cfa_register %rbp
	pushq	%r15
	pushq	%r14
	pushq	%r12
	pushq	%rbx
	subq	$64, %rsp
	.cfi_offset %rbx, -48
	.cfi_offset %r12, -40
	.cfi_offset %r14, -32
	.cfi_offset %r15, -24
	movq	%rdx, %r14
	movq	%rsi, %r15
	movq	%rdi, %rbx
	movl	$309, __profile__funcID # imm = 0x135
	callq	__profile__record_time_begin
	movq	%rax, %r12
	movq	%rbx, -56(%rbp)
	movq	%r15, -48(%rbp)
	movq	%r14, -40(%rbp)
	movq	-56(%rbp), %rdi
	movq	-48(%rbp), %rsi
	movq	-40(%rbp), %rdx
	callq	mpi_group_rank_
	movabsq	$.L__unnamed_184, %rdi
	movq	%r12, %rsi
	callq	__profile__record_time_end
	addq	$64, %rsp
	popq	%rbx
	popq	%r12
	popq	%r14
	popq	%r15
	popq	%rbp
	.cfi_def_cfa %rsp, 8
	retq
.Lfunc_end183:
	.size	MPI_GROUP_RANK_, .Lfunc_end183-MPI_GROUP_RANK_
	.cfi_endproc
                                        # -- End function
	.globl	mpi_group_rank          # -- Begin function mpi_group_rank
	.p2align	4, 0x90
	.type	mpi_group_rank,@function
mpi_group_rank:                         # @mpi_group_rank
	.cfi_startproc
# %bb.0:                                # %entry
	pushq	%rbp
	.cfi_def_cfa_offset 16
	.cfi_offset %rbp, -16
	movq	%rsp, %rbp
	.cfi_def_cfa_register %rbp
	pushq	%r15
	pushq	%r14
	pushq	%r12
	pushq	%rbx
	subq	$64, %rsp
	.cfi_offset %rbx, -48
	.cfi_offset %r12, -40
	.cfi_offset %r14, -32
	.cfi_offset %r15, -24
	movq	%rdx, %r14
	movq	%rsi, %r15
	movq	%rdi, %rbx
	movl	$310, __profile__funcID # imm = 0x136
	callq	__profile__record_time_begin
	movq	%rax, %r12
	movq	%rbx, -56(%rbp)
	movq	%r15, -48(%rbp)
	movq	%r14, -40(%rbp)
	movq	-56(%rbp), %rdi
	movq	-48(%rbp), %rsi
	movq	-40(%rbp), %rdx
	callq	mpi_group_rank_
	movabsq	$.L__unnamed_185, %rdi
	movq	%r12, %rsi
	callq	__profile__record_time_end
	addq	$64, %rsp
	popq	%rbx
	popq	%r12
	popq	%r14
	popq	%r15
	popq	%rbp
	.cfi_def_cfa %rsp, 8
	retq
.Lfunc_end184:
	.size	mpi_group_rank, .Lfunc_end184-mpi_group_rank
	.cfi_endproc
                                        # -- End function
	.globl	mpi_group_range_excl_   # -- Begin function mpi_group_range_excl_
	.p2align	4, 0x90
	.type	mpi_group_range_excl_,@function
mpi_group_range_excl_:                  # @mpi_group_range_excl_
	.cfi_startproc
# %bb.0:                                # %entry
	pushq	%rbp
	.cfi_def_cfa_offset 16
	.cfi_offset %rbp, -16
	movq	%rsp, %rbp
	.cfi_def_cfa_register %rbp
	pushq	%r15
	pushq	%r14
	pushq	%r13
	pushq	%r12
	pushq	%rbx
	subq	$104, %rsp
	.cfi_offset %rbx, -56
	.cfi_offset %r12, -48
	.cfi_offset %r13, -40
	.cfi_offset %r14, -32
	.cfi_offset %r15, -24
	movq	%r8, %r14
	movq	%rcx, %r15
	movq	%rdx, %r12
	movq	%rsi, %r13
	movq	%rdi, %rbx
	movl	$311, __profile__funcID # imm = 0x137
	callq	__profile__record_time_begin
	movq	%rax, -56(%rbp)         # 8-byte Spill
	movq	%rbx, -96(%rbp)
	movq	%r13, -88(%rbp)
	movq	%r12, -80(%rbp)
	movq	%r15, -72(%rbp)
	movq	%r14, -64(%rbp)
	movq	-96(%rbp), %rax
	movl	(%rax), %edi
	movq	-88(%rbp), %rax
	movl	(%rax), %esi
	movq	-80(%rbp), %rdx
	leaq	-44(%rbp), %rcx
	callq	MPI_Group_range_excl
	movq	-64(%rbp), %rcx
	movl	%eax, (%rcx)
	movl	-44(%rbp), %eax
	movq	-72(%rbp), %rcx
	movl	%eax, (%rcx)
	movabsq	$.L__unnamed_186, %rdi
	movq	-56(%rbp), %rsi         # 8-byte Reload
	callq	__profile__record_time_end
	addq	$104, %rsp
	popq	%rbx
	popq	%r12
	popq	%r13
	popq	%r14
	popq	%r15
	popq	%rbp
	.cfi_def_cfa %rsp, 8
	retq
.Lfunc_end185:
	.size	mpi_group_range_excl_, .Lfunc_end185-mpi_group_range_excl_
	.cfi_endproc
                                        # -- End function
