
build/main：     文件格式 elf64-x86-64


Disassembly of section .init:

0000000000001000 <_init>:
_init():
    1000:	f3 0f 1e fa          	endbr64 
    1004:	48 83 ec 08          	sub    $0x8,%rsp
    1008:	48 8b 05 c9 3f 00 00 	mov    0x3fc9(%rip),%rax        # 4fd8 <__gmon_start__@Base>
    100f:	48 85 c0             	test   %rax,%rax
    1012:	74 02                	je     1016 <_init+0x16>
    1014:	ff d0                	call   *%rax
    1016:	48 83 c4 08          	add    $0x8,%rsp
    101a:	c3                   	ret    

Disassembly of section .plt:

0000000000001020 <.plt>:
    1020:	ff 35 0a 3f 00 00    	push   0x3f0a(%rip)        # 4f30 <_GLOBAL_OFFSET_TABLE_+0x8>
    1026:	f2 ff 25 0b 3f 00 00 	bnd jmp *0x3f0b(%rip)        # 4f38 <_GLOBAL_OFFSET_TABLE_+0x10>
    102d:	0f 1f 00             	nopl   (%rax)
    1030:	f3 0f 1e fa          	endbr64 
    1034:	68 00 00 00 00       	push   $0x0
    1039:	f2 e9 e1 ff ff ff    	bnd jmp 1020 <_init+0x20>
    103f:	90                   	nop
    1040:	f3 0f 1e fa          	endbr64 
    1044:	68 01 00 00 00       	push   $0x1
    1049:	f2 e9 d1 ff ff ff    	bnd jmp 1020 <_init+0x20>
    104f:	90                   	nop
    1050:	f3 0f 1e fa          	endbr64 
    1054:	68 02 00 00 00       	push   $0x2
    1059:	f2 e9 c1 ff ff ff    	bnd jmp 1020 <_init+0x20>
    105f:	90                   	nop
    1060:	f3 0f 1e fa          	endbr64 
    1064:	68 03 00 00 00       	push   $0x3
    1069:	f2 e9 b1 ff ff ff    	bnd jmp 1020 <_init+0x20>
    106f:	90                   	nop
    1070:	f3 0f 1e fa          	endbr64 
    1074:	68 04 00 00 00       	push   $0x4
    1079:	f2 e9 a1 ff ff ff    	bnd jmp 1020 <_init+0x20>
    107f:	90                   	nop
    1080:	f3 0f 1e fa          	endbr64 
    1084:	68 05 00 00 00       	push   $0x5
    1089:	f2 e9 91 ff ff ff    	bnd jmp 1020 <_init+0x20>
    108f:	90                   	nop
    1090:	f3 0f 1e fa          	endbr64 
    1094:	68 06 00 00 00       	push   $0x6
    1099:	f2 e9 81 ff ff ff    	bnd jmp 1020 <_init+0x20>
    109f:	90                   	nop
    10a0:	f3 0f 1e fa          	endbr64 
    10a4:	68 07 00 00 00       	push   $0x7
    10a9:	f2 e9 71 ff ff ff    	bnd jmp 1020 <_init+0x20>
    10af:	90                   	nop
    10b0:	f3 0f 1e fa          	endbr64 
    10b4:	68 08 00 00 00       	push   $0x8
    10b9:	f2 e9 61 ff ff ff    	bnd jmp 1020 <_init+0x20>
    10bf:	90                   	nop
    10c0:	f3 0f 1e fa          	endbr64 
    10c4:	68 09 00 00 00       	push   $0x9
    10c9:	f2 e9 51 ff ff ff    	bnd jmp 1020 <_init+0x20>
    10cf:	90                   	nop
    10d0:	f3 0f 1e fa          	endbr64 
    10d4:	68 0a 00 00 00       	push   $0xa
    10d9:	f2 e9 41 ff ff ff    	bnd jmp 1020 <_init+0x20>
    10df:	90                   	nop
    10e0:	f3 0f 1e fa          	endbr64 
    10e4:	68 0b 00 00 00       	push   $0xb
    10e9:	f2 e9 31 ff ff ff    	bnd jmp 1020 <_init+0x20>
    10ef:	90                   	nop
    10f0:	f3 0f 1e fa          	endbr64 
    10f4:	68 0c 00 00 00       	push   $0xc
    10f9:	f2 e9 21 ff ff ff    	bnd jmp 1020 <_init+0x20>
    10ff:	90                   	nop
    1100:	f3 0f 1e fa          	endbr64 
    1104:	68 0d 00 00 00       	push   $0xd
    1109:	f2 e9 11 ff ff ff    	bnd jmp 1020 <_init+0x20>
    110f:	90                   	nop
    1110:	f3 0f 1e fa          	endbr64 
    1114:	68 0e 00 00 00       	push   $0xe
    1119:	f2 e9 01 ff ff ff    	bnd jmp 1020 <_init+0x20>
    111f:	90                   	nop
    1120:	f3 0f 1e fa          	endbr64 
    1124:	68 0f 00 00 00       	push   $0xf
    1129:	f2 e9 f1 fe ff ff    	bnd jmp 1020 <_init+0x20>
    112f:	90                   	nop
    1130:	f3 0f 1e fa          	endbr64 
    1134:	68 10 00 00 00       	push   $0x10
    1139:	f2 e9 e1 fe ff ff    	bnd jmp 1020 <_init+0x20>
    113f:	90                   	nop
    1140:	f3 0f 1e fa          	endbr64 
    1144:	68 11 00 00 00       	push   $0x11
    1149:	f2 e9 d1 fe ff ff    	bnd jmp 1020 <_init+0x20>
    114f:	90                   	nop
    1150:	f3 0f 1e fa          	endbr64 
    1154:	68 12 00 00 00       	push   $0x12
    1159:	f2 e9 c1 fe ff ff    	bnd jmp 1020 <_init+0x20>
    115f:	90                   	nop

Disassembly of section .plt.got:

0000000000001160 <__cxa_finalize@plt>:
    1160:	f3 0f 1e fa          	endbr64 
    1164:	f2 ff 25 85 3e 00 00 	bnd jmp *0x3e85(%rip)        # 4ff0 <__cxa_finalize@GLIBC_2.2.5>
    116b:	0f 1f 44 00 00       	nopl   0x0(%rax,%rax,1)

Disassembly of section .plt.sec:

0000000000001170 <printf@plt>:
    1170:	f3 0f 1e fa          	endbr64 
    1174:	f2 ff 25 c5 3d 00 00 	bnd jmp *0x3dc5(%rip)        # 4f40 <printf@GLIBC_2.2.5>
    117b:	0f 1f 44 00 00       	nopl   0x0(%rax,%rax,1)

0000000000001180 <memset@plt>:
    1180:	f3 0f 1e fa          	endbr64 
    1184:	f2 ff 25 bd 3d 00 00 	bnd jmp *0x3dbd(%rip)        # 4f48 <memset@GLIBC_2.2.5>
    118b:	0f 1f 44 00 00       	nopl   0x0(%rax,%rax,1)

0000000000001190 <puts@plt>:
    1190:	f3 0f 1e fa          	endbr64 
    1194:	f2 ff 25 b5 3d 00 00 	bnd jmp *0x3db5(%rip)        # 4f50 <puts@GLIBC_2.2.5>
    119b:	0f 1f 44 00 00       	nopl   0x0(%rax,%rax,1)

00000000000011a0 <malloc@plt>:
    11a0:	f3 0f 1e fa          	endbr64 
    11a4:	f2 ff 25 ad 3d 00 00 	bnd jmp *0x3dad(%rip)        # 4f58 <malloc@GLIBC_2.2.5>
    11ab:	0f 1f 44 00 00       	nopl   0x0(%rax,%rax,1)

00000000000011b0 <fopen@plt>:
    11b0:	f3 0f 1e fa          	endbr64 
    11b4:	f2 ff 25 a5 3d 00 00 	bnd jmp *0x3da5(%rip)        # 4f60 <fopen@GLIBC_2.2.5>
    11bb:	0f 1f 44 00 00       	nopl   0x0(%rax,%rax,1)

00000000000011c0 <MPI_Init@plt>:
    11c0:	f3 0f 1e fa          	endbr64 
    11c4:	f2 ff 25 9d 3d 00 00 	bnd jmp *0x3d9d(%rip)        # 4f68 <MPI_Init@Base>
    11cb:	0f 1f 44 00 00       	nopl   0x0(%rax,%rax,1)

00000000000011d0 <fputc@plt>:
    11d0:	f3 0f 1e fa          	endbr64 
    11d4:	f2 ff 25 95 3d 00 00 	bnd jmp *0x3d95(%rip)        # 4f70 <fputc@GLIBC_2.2.5>
    11db:	0f 1f 44 00 00       	nopl   0x0(%rax,%rax,1)

00000000000011e0 <strlen@plt>:
    11e0:	f3 0f 1e fa          	endbr64 
    11e4:	f2 ff 25 8d 3d 00 00 	bnd jmp *0x3d8d(%rip)        # 4f78 <strlen@GLIBC_2.2.5>
    11eb:	0f 1f 44 00 00       	nopl   0x0(%rax,%rax,1)

00000000000011f0 <MPI_Get_processor_name@plt>:
    11f0:	f3 0f 1e fa          	endbr64 
    11f4:	f2 ff 25 85 3d 00 00 	bnd jmp *0x3d85(%rip)        # 4f80 <MPI_Get_processor_name@Base>
    11fb:	0f 1f 44 00 00       	nopl   0x0(%rax,%rax,1)

0000000000001200 <MPI_Comm_size@plt>:
    1200:	f3 0f 1e fa          	endbr64 
    1204:	f2 ff 25 7d 3d 00 00 	bnd jmp *0x3d7d(%rip)        # 4f88 <MPI_Comm_size@Base>
    120b:	0f 1f 44 00 00       	nopl   0x0(%rax,%rax,1)

0000000000001210 <strcat@plt>:
    1210:	f3 0f 1e fa          	endbr64 
    1214:	f2 ff 25 75 3d 00 00 	bnd jmp *0x3d75(%rip)        # 4f90 <strcat@GLIBC_2.2.5>
    121b:	0f 1f 44 00 00       	nopl   0x0(%rax,%rax,1)

0000000000001220 <MPI_Comm_rank@plt>:
    1220:	f3 0f 1e fa          	endbr64 
    1224:	f2 ff 25 6d 3d 00 00 	bnd jmp *0x3d6d(%rip)        # 4f98 <MPI_Comm_rank@Base>
    122b:	0f 1f 44 00 00       	nopl   0x0(%rax,%rax,1)

0000000000001230 <__stack_chk_fail@plt>:
    1230:	f3 0f 1e fa          	endbr64 
    1234:	f2 ff 25 65 3d 00 00 	bnd jmp *0x3d65(%rip)        # 4fa0 <__stack_chk_fail@GLIBC_2.4>
    123b:	0f 1f 44 00 00       	nopl   0x0(%rax,%rax,1)

0000000000001240 <MPI_Finalize@plt>:
    1240:	f3 0f 1e fa          	endbr64 
    1244:	f2 ff 25 5d 3d 00 00 	bnd jmp *0x3d5d(%rip)        # 4fa8 <MPI_Finalize@Base>
    124b:	0f 1f 44 00 00       	nopl   0x0(%rax,%rax,1)

0000000000001250 <fclose@plt>:
    1250:	f3 0f 1e fa          	endbr64 
    1254:	f2 ff 25 55 3d 00 00 	bnd jmp *0x3d55(%rip)        # 4fb0 <fclose@GLIBC_2.2.5>
    125b:	0f 1f 44 00 00       	nopl   0x0(%rax,%rax,1)

0000000000001260 <fprintf@plt>:
    1260:	f3 0f 1e fa          	endbr64 
    1264:	f2 ff 25 4d 3d 00 00 	bnd jmp *0x3d4d(%rip)        # 4fb8 <fprintf@GLIBC_2.2.5>
    126b:	0f 1f 44 00 00       	nopl   0x0(%rax,%rax,1)

0000000000001270 <localtime@plt>:
    1270:	f3 0f 1e fa          	endbr64 
    1274:	f2 ff 25 45 3d 00 00 	bnd jmp *0x3d45(%rip)        # 4fc0 <localtime@GLIBC_2.2.5>
    127b:	0f 1f 44 00 00       	nopl   0x0(%rax,%rax,1)

0000000000001280 <strftime@plt>:
    1280:	f3 0f 1e fa          	endbr64 
    1284:	f2 ff 25 3d 3d 00 00 	bnd jmp *0x3d3d(%rip)        # 4fc8 <strftime@GLIBC_2.2.5>
    128b:	0f 1f 44 00 00       	nopl   0x0(%rax,%rax,1)

0000000000001290 <time@plt>:
    1290:	f3 0f 1e fa          	endbr64 
    1294:	f2 ff 25 35 3d 00 00 	bnd jmp *0x3d35(%rip)        # 4fd0 <time@GLIBC_2.2.5>
    129b:	0f 1f 44 00 00       	nopl   0x0(%rax,%rax,1)

Disassembly of section .text:

00000000000012a0 <_start>:
_start():
    12a0:	f3 0f 1e fa          	endbr64 
    12a4:	31 ed                	xor    %ebp,%ebp
    12a6:	49 89 d1             	mov    %rdx,%r9
    12a9:	5e                   	pop    %rsi
    12aa:	48 89 e2             	mov    %rsp,%rdx
    12ad:	48 83 e4 f0          	and    $0xfffffffffffffff0,%rsp
    12b1:	50                   	push   %rax
    12b2:	54                   	push   %rsp
    12b3:	45 31 c0             	xor    %r8d,%r8d
    12b6:	31 c9                	xor    %ecx,%ecx
    12b8:	48 8d 3d ca 00 00 00 	lea    0xca(%rip),%rdi        # 1389 <main>
    12bf:	ff 15 33 3d 00 00    	call   *0x3d33(%rip)        # 4ff8 <__libc_start_main@GLIBC_2.34>
    12c5:	f4                   	hlt    
    12c6:	66 2e 0f 1f 84 00 00 	cs nopw 0x0(%rax,%rax,1)
    12cd:	00 00 00 

00000000000012d0 <deregister_tm_clones>:
deregister_tm_clones():
    12d0:	48 8d 3d 41 3d 00 00 	lea    0x3d41(%rip),%rdi        # 5018 <__TMC_END__>
    12d7:	48 8d 05 3a 3d 00 00 	lea    0x3d3a(%rip),%rax        # 5018 <__TMC_END__>
    12de:	48 39 f8             	cmp    %rdi,%rax
    12e1:	74 15                	je     12f8 <deregister_tm_clones+0x28>
    12e3:	48 8b 05 f6 3c 00 00 	mov    0x3cf6(%rip),%rax        # 4fe0 <_ITM_deregisterTMCloneTable@Base>
    12ea:	48 85 c0             	test   %rax,%rax
    12ed:	74 09                	je     12f8 <deregister_tm_clones+0x28>
    12ef:	ff e0                	jmp    *%rax
    12f1:	0f 1f 80 00 00 00 00 	nopl   0x0(%rax)
    12f8:	c3                   	ret    
    12f9:	0f 1f 80 00 00 00 00 	nopl   0x0(%rax)

0000000000001300 <register_tm_clones>:
register_tm_clones():
    1300:	48 8d 3d 11 3d 00 00 	lea    0x3d11(%rip),%rdi        # 5018 <__TMC_END__>
    1307:	48 8d 35 0a 3d 00 00 	lea    0x3d0a(%rip),%rsi        # 5018 <__TMC_END__>
    130e:	48 29 fe             	sub    %rdi,%rsi
    1311:	48 89 f0             	mov    %rsi,%rax
    1314:	48 c1 ee 3f          	shr    $0x3f,%rsi
    1318:	48 c1 f8 03          	sar    $0x3,%rax
    131c:	48 01 c6             	add    %rax,%rsi
    131f:	48 d1 fe             	sar    %rsi
    1322:	74 14                	je     1338 <register_tm_clones+0x38>
    1324:	48 8b 05 bd 3c 00 00 	mov    0x3cbd(%rip),%rax        # 4fe8 <_ITM_registerTMCloneTable@Base>
    132b:	48 85 c0             	test   %rax,%rax
    132e:	74 08                	je     1338 <register_tm_clones+0x38>
    1330:	ff e0                	jmp    *%rax
    1332:	66 0f 1f 44 00 00    	nopw   0x0(%rax,%rax,1)
    1338:	c3                   	ret    
    1339:	0f 1f 80 00 00 00 00 	nopl   0x0(%rax)

0000000000001340 <__do_global_dtors_aux>:
__do_global_dtors_aux():
    1340:	f3 0f 1e fa          	endbr64 
    1344:	80 3d dd 3c 00 00 00 	cmpb   $0x0,0x3cdd(%rip)        # 5028 <completed.0>
    134b:	75 2b                	jne    1378 <__do_global_dtors_aux+0x38>
    134d:	55                   	push   %rbp
    134e:	48 83 3d 9a 3c 00 00 	cmpq   $0x0,0x3c9a(%rip)        # 4ff0 <__cxa_finalize@GLIBC_2.2.5>
    1355:	00 
    1356:	48 89 e5             	mov    %rsp,%rbp
    1359:	74 0c                	je     1367 <__do_global_dtors_aux+0x27>
    135b:	48 8b 3d a6 3c 00 00 	mov    0x3ca6(%rip),%rdi        # 5008 <__dso_handle>
    1362:	e8 f9 fd ff ff       	call   1160 <__cxa_finalize@plt>
    1367:	e8 64 ff ff ff       	call   12d0 <deregister_tm_clones>
    136c:	c6 05 b5 3c 00 00 01 	movb   $0x1,0x3cb5(%rip)        # 5028 <completed.0>
    1373:	5d                   	pop    %rbp
    1374:	c3                   	ret    
    1375:	0f 1f 00             	nopl   (%rax)
    1378:	c3                   	ret    
    1379:	0f 1f 80 00 00 00 00 	nopl   0x0(%rax)

0000000000001380 <frame_dummy>:
frame_dummy():
    1380:	f3 0f 1e fa          	endbr64 
    1384:	e9 77 ff ff ff       	jmp    1300 <register_tm_clones>

0000000000001389 <main>:
main():
/home/feng/ecnu/ecnu-wys/timerSelf/libprobe/utility/test.c:5
    1389:	f3 0f 1e fa          	endbr64 
    138d:	55                   	push   %rbp
    138e:	48 89 e5             	mov    %rsp,%rbp
    1391:	53                   	push   %rbx
    1392:	48 81 ec b8 00 00 00 	sub    $0xb8,%rsp
    1399:	89 bd 4c ff ff ff    	mov    %edi,-0xb4(%rbp)
    139f:	48 89 b5 40 ff ff ff 	mov    %rsi,-0xc0(%rbp)
    13a6:	64 48 8b 04 25 28 00 	mov    %fs:0x28,%rax
    13ad:	00 00 
    13af:	48 89 45 e8          	mov    %rax,-0x18(%rbp)
    13b3:	31 c0                	xor    %eax,%eax
    13b5:	48 8b 45 08          	mov    0x8(%rbp),%rax
    13b9:	48 89 c6             	mov    %rax,%rsi
    13bc:	48 8d 05 c6 ff ff ff 	lea    -0x3a(%rip),%rax        # 1389 <main>
    13c3:	48 89 c7             	mov    %rax,%rdi
    13c6:	e8 13 13 00 00       	call   26de <__cyg_profile_func_enter>
/home/feng/ecnu/ecnu-wys/timerSelf/libprobe/utility/test.c:10
    13cb:	48 8d 95 40 ff ff ff 	lea    -0xc0(%rbp),%rdx
    13d2:	48 8d 85 4c ff ff ff 	lea    -0xb4(%rbp),%rax
    13d9:	48 89 d6             	mov    %rdx,%rsi
    13dc:	48 89 c7             	mov    %rax,%rdi
    13df:	e8 dc fd ff ff       	call   11c0 <MPI_Init@plt>
/home/feng/ecnu/ecnu-wys/timerSelf/libprobe/utility/test.c:11
    13e4:	48 8d 85 54 ff ff ff 	lea    -0xac(%rbp),%rax
    13eb:	48 89 c6             	mov    %rax,%rsi
    13ee:	bf 00 00 00 44       	mov    $0x44000000,%edi
    13f3:	e8 28 fe ff ff       	call   1220 <MPI_Comm_rank@plt>
/home/feng/ecnu/ecnu-wys/timerSelf/libprobe/utility/test.c:12
    13f8:	48 8d 85 58 ff ff ff 	lea    -0xa8(%rbp),%rax
    13ff:	48 89 c6             	mov    %rax,%rsi
    1402:	bf 00 00 00 44       	mov    $0x44000000,%edi
    1407:	e8 f4 fd ff ff       	call   1200 <MPI_Comm_size@plt>
/home/feng/ecnu/ecnu-wys/timerSelf/libprobe/utility/test.c:13
    140c:	48 8d 95 5c ff ff ff 	lea    -0xa4(%rbp),%rdx
    1413:	48 8d 85 60 ff ff ff 	lea    -0xa0(%rbp),%rax
    141a:	48 89 d6             	mov    %rdx,%rsi
    141d:	48 89 c7             	mov    %rax,%rdi
    1420:	e8 cb fd ff ff       	call   11f0 <MPI_Get_processor_name@plt>
/home/feng/ecnu/ecnu-wys/timerSelf/libprobe/utility/test.c:14
    1425:	8b 8d 58 ff ff ff    	mov    -0xa8(%rbp),%ecx
    142b:	8b 95 54 ff ff ff    	mov    -0xac(%rbp),%edx
    1431:	48 8b 05 e8 3b 00 00 	mov    0x3be8(%rip),%rax        # 5020 <stderr@GLIBC_2.2.5>
    1438:	48 8d b5 60 ff ff ff 	lea    -0xa0(%rbp),%rsi
    143f:	49 89 f0             	mov    %rsi,%r8
    1442:	48 8d 35 bf 1b 00 00 	lea    0x1bbf(%rip),%rsi        # 3008 <_IO_stdin_used+0x8>
    1449:	48 89 c7             	mov    %rax,%rdi
    144c:	b8 00 00 00 00       	mov    $0x0,%eax
    1451:	e8 0a fe ff ff       	call   1260 <fprintf@plt>
/home/feng/ecnu/ecnu-wys/timerSelf/libprobe/utility/test.c:15
    1456:	e8 e5 fd ff ff       	call   1240 <MPI_Finalize@plt>
/home/feng/ecnu/ecnu-wys/timerSelf/libprobe/utility/test.c:16
    145b:	bb 00 00 00 00       	mov    $0x0,%ebx
    1460:	48 8b 45 08          	mov    0x8(%rbp),%rax
    1464:	48 89 c6             	mov    %rax,%rsi
    1467:	48 8d 05 1b ff ff ff 	lea    -0xe5(%rip),%rax        # 1389 <main>
    146e:	48 89 c7             	mov    %rax,%rdi
    1471:	e8 b9 12 00 00       	call   272f <__cyg_profile_func_exit>
/home/feng/ecnu/ecnu-wys/timerSelf/libprobe/utility/test.c:17
    1476:	89 d8                	mov    %ebx,%eax
    1478:	48 8b 55 e8          	mov    -0x18(%rbp),%rdx
    147c:	64 48 2b 14 25 28 00 	sub    %fs:0x28,%rdx
    1483:	00 00 
    1485:	74 05                	je     148c <main+0x103>
    1487:	e8 a4 fd ff ff       	call   1230 <__stack_chk_fail@plt>
    148c:	48 8b 5d f8          	mov    -0x8(%rbp),%rbx
    1490:	c9                   	leave  
    1491:	c3                   	ret    

0000000000001492 <init_stack>:
init_stack():
/home/feng/ecnu/ecnu-wys/timerSelf/libprobe/src/../utility/stack.h:12
    1492:	f3 0f 1e fa          	endbr64 
    1496:	55                   	push   %rbp
    1497:	48 89 e5             	mov    %rsp,%rbp
    149a:	48 83 ec 10          	sub    $0x10,%rsp
    149e:	48 89 7d f8          	mov    %rdi,-0x8(%rbp)
/home/feng/ecnu/ecnu-wys/timerSelf/libprobe/src/../utility/stack.h:13
    14a2:	48 8b 45 f8          	mov    -0x8(%rbp),%rax
    14a6:	ba 00 b4 c4 04       	mov    $0x4c4b400,%edx
    14ab:	be 00 00 00 00       	mov    $0x0,%esi
    14b0:	48 89 c7             	mov    %rax,%rdi
    14b3:	e8 c8 fc ff ff       	call   1180 <memset@plt>
/home/feng/ecnu/ecnu-wys/timerSelf/libprobe/src/../utility/stack.h:14
    14b8:	48 8b 45 f8          	mov    -0x8(%rbp),%rax
    14bc:	c7 80 00 b4 c4 04 00 	movl   $0x0,0x4c4b400(%rax)
    14c3:	00 00 00 
/home/feng/ecnu/ecnu-wys/timerSelf/libprobe/src/../utility/stack.h:15
    14c6:	48 8b 45 f8          	mov    -0x8(%rbp),%rax
    14ca:	8b 90 00 b4 c4 04    	mov    0x4c4b400(%rax),%edx
    14d0:	48 8b 45 f8          	mov    -0x8(%rbp),%rax
    14d4:	48 63 d2             	movslq %edx,%rdx
    14d7:	48 c7 04 d0 ff ff ff 	movq   $0xffffffffffffffff,(%rax,%rdx,8)
    14de:	ff 
/home/feng/ecnu/ecnu-wys/timerSelf/libprobe/src/../utility/stack.h:16
    14df:	90                   	nop
    14e0:	c9                   	leave  
    14e1:	c3                   	ret    

00000000000014e2 <push>:
push():
/home/feng/ecnu/ecnu-wys/timerSelf/libprobe/src/../utility/stack.h:19
    14e2:	f3 0f 1e fa          	endbr64 
    14e6:	55                   	push   %rbp
    14e7:	48 89 e5             	mov    %rsp,%rbp
    14ea:	48 89 7d f8          	mov    %rdi,-0x8(%rbp)
    14ee:	48 89 75 f0          	mov    %rsi,-0x10(%rbp)
/home/feng/ecnu/ecnu-wys/timerSelf/libprobe/src/../utility/stack.h:25
    14f2:	48 8b 45 f8          	mov    -0x8(%rbp),%rax
    14f6:	8b 80 00 b4 c4 04    	mov    0x4c4b400(%rax),%eax
    14fc:	8d 50 01             	lea    0x1(%rax),%edx
    14ff:	48 8b 45 f8          	mov    -0x8(%rbp),%rax
    1503:	89 90 00 b4 c4 04    	mov    %edx,0x4c4b400(%rax)
/home/feng/ecnu/ecnu-wys/timerSelf/libprobe/src/../utility/stack.h:26
    1509:	48 8b 45 f8          	mov    -0x8(%rbp),%rax
    150d:	8b 90 00 b4 c4 04    	mov    0x4c4b400(%rax),%edx
    1513:	48 8b 45 f8          	mov    -0x8(%rbp),%rax
    1517:	48 63 d2             	movslq %edx,%rdx
    151a:	48 8b 4d f0          	mov    -0x10(%rbp),%rcx
    151e:	48 89 0c d0          	mov    %rcx,(%rax,%rdx,8)
/home/feng/ecnu/ecnu-wys/timerSelf/libprobe/src/../utility/stack.h:27
    1522:	90                   	nop
/home/feng/ecnu/ecnu-wys/timerSelf/libprobe/src/../utility/stack.h:29
    1523:	5d                   	pop    %rbp
    1524:	c3                   	ret    

0000000000001525 <pop>:
pop():
/home/feng/ecnu/ecnu-wys/timerSelf/libprobe/src/../utility/stack.h:32
    1525:	f3 0f 1e fa          	endbr64 
    1529:	55                   	push   %rbp
    152a:	48 89 e5             	mov    %rsp,%rbp
    152d:	48 83 ec 10          	sub    $0x10,%rsp
    1531:	48 89 7d f8          	mov    %rdi,-0x8(%rbp)
/home/feng/ecnu/ecnu-wys/timerSelf/libprobe/src/../utility/stack.h:33
    1535:	48 8b 45 f8          	mov    -0x8(%rbp),%rax
    1539:	8b 80 00 b4 c4 04    	mov    0x4c4b400(%rax),%eax
    153f:	85 c0                	test   %eax,%eax
    1541:	79 18                	jns    155b <pop+0x36>
/home/feng/ecnu/ecnu-wys/timerSelf/libprobe/src/../utility/stack.h:34
    1543:	48 8d 05 e6 1a 00 00 	lea    0x1ae6(%rip),%rax        # 3030 <_IO_stdin_used+0x30>
    154a:	48 89 c7             	mov    %rax,%rdi
    154d:	e8 3e fc ff ff       	call   1190 <puts@plt>
/home/feng/ecnu/ecnu-wys/timerSelf/libprobe/src/../utility/stack.h:35
    1552:	48 c7 c0 ff ff ff ff 	mov    $0xffffffffffffffff,%rax
    1559:	eb 3a                	jmp    1595 <pop+0x70>
/home/feng/ecnu/ecnu-wys/timerSelf/libprobe/src/../utility/stack.h:39
    155b:	48 8b 45 f8          	mov    -0x8(%rbp),%rax
    155f:	8b 90 00 b4 c4 04    	mov    0x4c4b400(%rax),%edx
    1565:	48 8b 45 f8          	mov    -0x8(%rbp),%rax
    1569:	48 63 d2             	movslq %edx,%rdx
    156c:	48 8b 04 d0          	mov    (%rax,%rdx,8),%rax
    1570:	48 89 05 c9 3a 00 00 	mov    %rax,0x3ac9(%rip)        # 5040 <tmp>
/home/feng/ecnu/ecnu-wys/timerSelf/libprobe/src/../utility/stack.h:40
    1577:	48 8b 45 f8          	mov    -0x8(%rbp),%rax
    157b:	8b 80 00 b4 c4 04    	mov    0x4c4b400(%rax),%eax
    1581:	8d 50 ff             	lea    -0x1(%rax),%edx
    1584:	48 8b 45 f8          	mov    -0x8(%rbp),%rax
    1588:	89 90 00 b4 c4 04    	mov    %edx,0x4c4b400(%rax)
/home/feng/ecnu/ecnu-wys/timerSelf/libprobe/src/../utility/stack.h:41
    158e:	48 8b 05 ab 3a 00 00 	mov    0x3aab(%rip),%rax        # 5040 <tmp>
/home/feng/ecnu/ecnu-wys/timerSelf/libprobe/src/../utility/stack.h:44
    1595:	c9                   	leave  
    1596:	c3                   	ret    

0000000000001597 <top>:
top():
/home/feng/ecnu/ecnu-wys/timerSelf/libprobe/src/../utility/stack.h:47
    1597:	f3 0f 1e fa          	endbr64 
    159b:	55                   	push   %rbp
    159c:	48 89 e5             	mov    %rsp,%rbp
    159f:	48 89 7d f8          	mov    %rdi,-0x8(%rbp)
/home/feng/ecnu/ecnu-wys/timerSelf/libprobe/src/../utility/stack.h:48
    15a3:	48 8b 45 f8          	mov    -0x8(%rbp),%rax
    15a7:	8b 90 00 b4 c4 04    	mov    0x4c4b400(%rax),%edx
    15ad:	48 8b 45 f8          	mov    -0x8(%rbp),%rax
    15b1:	48 63 d2             	movslq %edx,%rdx
    15b4:	48 8b 04 d0          	mov    (%rax,%rdx,8),%rax
/home/feng/ecnu/ecnu-wys/timerSelf/libprobe/src/../utility/stack.h:49
    15b8:	5d                   	pop    %rbp
    15b9:	c3                   	ret    

00000000000015ba <destory>:
destory():
/home/feng/ecnu/ecnu-wys/timerSelf/libprobe/src/../utility/stack.h:52
    15ba:	f3 0f 1e fa          	endbr64 
    15be:	55                   	push   %rbp
    15bf:	48 89 e5             	mov    %rsp,%rbp
    15c2:	48 83 ec 10          	sub    $0x10,%rsp
    15c6:	48 89 7d f8          	mov    %rdi,-0x8(%rbp)
/home/feng/ecnu/ecnu-wys/timerSelf/libprobe/src/../utility/stack.h:53
    15ca:	48 8b 45 f8          	mov    -0x8(%rbp),%rax
    15ce:	c7 80 00 b4 c4 04 ff 	movl   $0xffffffff,0x4c4b400(%rax)
    15d5:	ff ff ff 
/home/feng/ecnu/ecnu-wys/timerSelf/libprobe/src/../utility/stack.h:54
    15d8:	48 8b 45 f8          	mov    -0x8(%rbp),%rax
    15dc:	ba 00 b4 c4 04       	mov    $0x4c4b400,%edx
    15e1:	be 00 00 00 00       	mov    $0x0,%esi
    15e6:	48 89 c7             	mov    %rax,%rdi
    15e9:	e8 92 fb ff ff       	call   1180 <memset@plt>
/home/feng/ecnu/ecnu-wys/timerSelf/libprobe/src/../utility/stack.h:55
    15ee:	90                   	nop
    15ef:	c9                   	leave  
    15f0:	c3                   	ret    

00000000000015f1 <perf_counter>:
perf_counter():
/home/feng/ecnu/ecnu-wys/timerSelf/libprobe/src/../utility/perf_counter.h:10
    15f1:	f3 0f 1e fa          	endbr64 
    15f5:	55                   	push   %rbp
    15f6:	48 89 e5             	mov    %rsp,%rbp
/home/feng/ecnu/ecnu-wys/timerSelf/libprobe/src/../utility/perf_counter.h:13
    15f9:	0f 01 f9             	rdtscp 
    15fc:	89 45 f8             	mov    %eax,-0x8(%rbp)
    15ff:	89 55 fc             	mov    %edx,-0x4(%rbp)
/home/feng/ecnu/ecnu-wys/timerSelf/libprobe/src/../utility/perf_counter.h:16
    1602:	8b 55 f8             	mov    -0x8(%rbp),%edx
    1605:	8b 45 fc             	mov    -0x4(%rbp),%eax
    1608:	48 c1 e0 20          	shl    $0x20,%rax
    160c:	48 09 d0             	or     %rdx,%rax
/home/feng/ecnu/ecnu-wys/timerSelf/libprobe/src/../utility/perf_counter.h:17
    160f:	5d                   	pop    %rbp
    1610:	c3                   	ret    

0000000000001611 <LeftRotate>:
LeftRotate():
/home/feng/ecnu/ecnu-wys/timerSelf/libprobe/src/../utility/rbtree.h:36
    1611:	f3 0f 1e fa          	endbr64 
    1615:	55                   	push   %rbp
    1616:	48 89 e5             	mov    %rsp,%rbp
    1619:	48 89 7d e8          	mov    %rdi,-0x18(%rbp)
    161d:	48 89 75 e0          	mov    %rsi,-0x20(%rbp)
/home/feng/ecnu/ecnu-wys/timerSelf/libprobe/src/../utility/rbtree.h:37
    1621:	48 83 7d e0 00       	cmpq   $0x0,-0x20(%rbp)
    1626:	0f 84 c2 00 00 00    	je     16ee <LeftRotate+0xdd>
/home/feng/ecnu/ecnu-wys/timerSelf/libprobe/src/../utility/rbtree.h:37 (discriminator 1)
    162c:	48 8b 45 e0          	mov    -0x20(%rbp),%rax
    1630:	48 8b 40 30          	mov    0x30(%rax),%rax
    1634:	48 85 c0             	test   %rax,%rax
    1637:	0f 84 b1 00 00 00    	je     16ee <LeftRotate+0xdd>
/home/feng/ecnu/ecnu-wys/timerSelf/libprobe/src/../utility/rbtree.h:40
    163d:	48 8b 45 e0          	mov    -0x20(%rbp),%rax
    1641:	48 8b 40 30          	mov    0x30(%rax),%rax
    1645:	48 89 45 f8          	mov    %rax,-0x8(%rbp)
/home/feng/ecnu/ecnu-wys/timerSelf/libprobe/src/../utility/rbtree.h:43
    1649:	48 8b 45 f8          	mov    -0x8(%rbp),%rax
    164d:	48 8b 50 28          	mov    0x28(%rax),%rdx
    1651:	48 8b 45 e0          	mov    -0x20(%rbp),%rax
    1655:	48 89 50 30          	mov    %rdx,0x30(%rax)
/home/feng/ecnu/ecnu-wys/timerSelf/libprobe/src/../utility/rbtree.h:46
    1659:	48 8b 45 e0          	mov    -0x20(%rbp),%rax
    165d:	48 8b 40 30          	mov    0x30(%rax),%rax
    1661:	48 85 c0             	test   %rax,%rax
    1664:	74 10                	je     1676 <LeftRotate+0x65>
/home/feng/ecnu/ecnu-wys/timerSelf/libprobe/src/../utility/rbtree.h:47
    1666:	48 8b 45 e0          	mov    -0x20(%rbp),%rax
    166a:	48 8b 40 30          	mov    0x30(%rax),%rax
    166e:	48 8b 55 e0          	mov    -0x20(%rbp),%rdx
    1672:	48 89 50 38          	mov    %rdx,0x38(%rax)
/home/feng/ecnu/ecnu-wys/timerSelf/libprobe/src/../utility/rbtree.h:50
    1676:	48 8b 45 e0          	mov    -0x20(%rbp),%rax
    167a:	48 8b 50 38          	mov    0x38(%rax),%rdx
    167e:	48 8b 45 f8          	mov    -0x8(%rbp),%rax
    1682:	48 89 50 38          	mov    %rdx,0x38(%rax)
/home/feng/ecnu/ecnu-wys/timerSelf/libprobe/src/../utility/rbtree.h:53
    1686:	48 8b 45 e0          	mov    -0x20(%rbp),%rax
    168a:	48 8b 40 38          	mov    0x38(%rax),%rax
    168e:	48 85 c0             	test   %rax,%rax
    1691:	75 0d                	jne    16a0 <LeftRotate+0x8f>
/home/feng/ecnu/ecnu-wys/timerSelf/libprobe/src/../utility/rbtree.h:54
    1693:	48 8b 45 e8          	mov    -0x18(%rbp),%rax
    1697:	48 8b 55 f8          	mov    -0x8(%rbp),%rdx
    169b:	48 89 10             	mov    %rdx,(%rax)
    169e:	eb 34                	jmp    16d4 <LeftRotate+0xc3>
/home/feng/ecnu/ecnu-wys/timerSelf/libprobe/src/../utility/rbtree.h:57
    16a0:	48 8b 45 e0          	mov    -0x20(%rbp),%rax
    16a4:	48 8b 40 38          	mov    0x38(%rax),%rax
    16a8:	48 8b 40 28          	mov    0x28(%rax),%rax
    16ac:	48 39 45 e0          	cmp    %rax,-0x20(%rbp)
    16b0:	75 12                	jne    16c4 <LeftRotate+0xb3>
/home/feng/ecnu/ecnu-wys/timerSelf/libprobe/src/../utility/rbtree.h:58
    16b2:	48 8b 45 e0          	mov    -0x20(%rbp),%rax
    16b6:	48 8b 40 38          	mov    0x38(%rax),%rax
    16ba:	48 8b 55 f8          	mov    -0x8(%rbp),%rdx
    16be:	48 89 50 28          	mov    %rdx,0x28(%rax)
    16c2:	eb 10                	jmp    16d4 <LeftRotate+0xc3>
/home/feng/ecnu/ecnu-wys/timerSelf/libprobe/src/../utility/rbtree.h:59
    16c4:	48 8b 45 e0          	mov    -0x20(%rbp),%rax
    16c8:	48 8b 40 38          	mov    0x38(%rax),%rax
    16cc:	48 8b 55 f8          	mov    -0x8(%rbp),%rdx
    16d0:	48 89 50 30          	mov    %rdx,0x30(%rax)
/home/feng/ecnu/ecnu-wys/timerSelf/libprobe/src/../utility/rbtree.h:62
    16d4:	48 8b 45 f8          	mov    -0x8(%rbp),%rax
    16d8:	48 8b 55 e0          	mov    -0x20(%rbp),%rdx
    16dc:	48 89 50 28          	mov    %rdx,0x28(%rax)
/home/feng/ecnu/ecnu-wys/timerSelf/libprobe/src/../utility/rbtree.h:65
    16e0:	48 8b 45 e0          	mov    -0x20(%rbp),%rax
    16e4:	48 8b 55 f8          	mov    -0x8(%rbp),%rdx
    16e8:	48 89 50 38          	mov    %rdx,0x38(%rax)
    16ec:	eb 01                	jmp    16ef <LeftRotate+0xde>
/home/feng/ecnu/ecnu-wys/timerSelf/libprobe/src/../utility/rbtree.h:38
    16ee:	90                   	nop
/home/feng/ecnu/ecnu-wys/timerSelf/libprobe/src/../utility/rbtree.h:66
    16ef:	5d                   	pop    %rbp
    16f0:	c3                   	ret    

00000000000016f1 <rightRotate>:
rightRotate():
/home/feng/ecnu/ecnu-wys/timerSelf/libprobe/src/../utility/rbtree.h:71
    16f1:	f3 0f 1e fa          	endbr64 
    16f5:	55                   	push   %rbp
    16f6:	48 89 e5             	mov    %rsp,%rbp
    16f9:	48 89 7d e8          	mov    %rdi,-0x18(%rbp)
    16fd:	48 89 75 e0          	mov    %rsi,-0x20(%rbp)
/home/feng/ecnu/ecnu-wys/timerSelf/libprobe/src/../utility/rbtree.h:72
    1701:	48 83 7d e0 00       	cmpq   $0x0,-0x20(%rbp)
    1706:	0f 84 c2 00 00 00    	je     17ce <rightRotate+0xdd>
/home/feng/ecnu/ecnu-wys/timerSelf/libprobe/src/../utility/rbtree.h:72 (discriminator 1)
    170c:	48 8b 45 e0          	mov    -0x20(%rbp),%rax
    1710:	48 8b 40 28          	mov    0x28(%rax),%rax
    1714:	48 85 c0             	test   %rax,%rax
    1717:	0f 84 b1 00 00 00    	je     17ce <rightRotate+0xdd>
/home/feng/ecnu/ecnu-wys/timerSelf/libprobe/src/../utility/rbtree.h:74
    171d:	48 8b 45 e0          	mov    -0x20(%rbp),%rax
    1721:	48 8b 40 28          	mov    0x28(%rax),%rax
    1725:	48 89 45 f8          	mov    %rax,-0x8(%rbp)
/home/feng/ecnu/ecnu-wys/timerSelf/libprobe/src/../utility/rbtree.h:75
    1729:	48 8b 45 f8          	mov    -0x8(%rbp),%rax
    172d:	48 8b 50 30          	mov    0x30(%rax),%rdx
    1731:	48 8b 45 e0          	mov    -0x20(%rbp),%rax
    1735:	48 89 50 28          	mov    %rdx,0x28(%rax)
/home/feng/ecnu/ecnu-wys/timerSelf/libprobe/src/../utility/rbtree.h:76
    1739:	48 8b 45 f8          	mov    -0x8(%rbp),%rax
    173d:	48 8b 40 30          	mov    0x30(%rax),%rax
    1741:	48 85 c0             	test   %rax,%rax
    1744:	74 10                	je     1756 <rightRotate+0x65>
/home/feng/ecnu/ecnu-wys/timerSelf/libprobe/src/../utility/rbtree.h:77
    1746:	48 8b 45 f8          	mov    -0x8(%rbp),%rax
    174a:	48 8b 40 30          	mov    0x30(%rax),%rax
    174e:	48 8b 55 e0          	mov    -0x20(%rbp),%rdx
    1752:	48 89 50 38          	mov    %rdx,0x38(%rax)
/home/feng/ecnu/ecnu-wys/timerSelf/libprobe/src/../utility/rbtree.h:78
    1756:	48 8b 45 e0          	mov    -0x20(%rbp),%rax
    175a:	48 8b 50 38          	mov    0x38(%rax),%rdx
    175e:	48 8b 45 f8          	mov    -0x8(%rbp),%rax
    1762:	48 89 50 38          	mov    %rdx,0x38(%rax)
/home/feng/ecnu/ecnu-wys/timerSelf/libprobe/src/../utility/rbtree.h:79
    1766:	48 8b 45 f8          	mov    -0x8(%rbp),%rax
    176a:	48 8b 40 38          	mov    0x38(%rax),%rax
    176e:	48 85 c0             	test   %rax,%rax
    1771:	75 0d                	jne    1780 <rightRotate+0x8f>
/home/feng/ecnu/ecnu-wys/timerSelf/libprobe/src/../utility/rbtree.h:80
    1773:	48 8b 45 e8          	mov    -0x18(%rbp),%rax
    1777:	48 8b 55 f8          	mov    -0x8(%rbp),%rdx
    177b:	48 89 10             	mov    %rdx,(%rax)
    177e:	eb 34                	jmp    17b4 <rightRotate+0xc3>
/home/feng/ecnu/ecnu-wys/timerSelf/libprobe/src/../utility/rbtree.h:81
    1780:	48 8b 45 e0          	mov    -0x20(%rbp),%rax
    1784:	48 8b 40 38          	mov    0x38(%rax),%rax
    1788:	48 8b 40 28          	mov    0x28(%rax),%rax
    178c:	48 39 45 e0          	cmp    %rax,-0x20(%rbp)
    1790:	75 12                	jne    17a4 <rightRotate+0xb3>
/home/feng/ecnu/ecnu-wys/timerSelf/libprobe/src/../utility/rbtree.h:82
    1792:	48 8b 45 e0          	mov    -0x20(%rbp),%rax
    1796:	48 8b 40 38          	mov    0x38(%rax),%rax
    179a:	48 8b 55 f8          	mov    -0x8(%rbp),%rdx
    179e:	48 89 50 28          	mov    %rdx,0x28(%rax)
    17a2:	eb 10                	jmp    17b4 <rightRotate+0xc3>
/home/feng/ecnu/ecnu-wys/timerSelf/libprobe/src/../utility/rbtree.h:83
    17a4:	48 8b 45 e0          	mov    -0x20(%rbp),%rax
    17a8:	48 8b 40 38          	mov    0x38(%rax),%rax
    17ac:	48 8b 55 f8          	mov    -0x8(%rbp),%rdx
    17b0:	48 89 50 30          	mov    %rdx,0x30(%rax)
/home/feng/ecnu/ecnu-wys/timerSelf/libprobe/src/../utility/rbtree.h:84
    17b4:	48 8b 45 f8          	mov    -0x8(%rbp),%rax
    17b8:	48 8b 55 e0          	mov    -0x20(%rbp),%rdx
    17bc:	48 89 50 30          	mov    %rdx,0x30(%rax)
/home/feng/ecnu/ecnu-wys/timerSelf/libprobe/src/../utility/rbtree.h:85
    17c0:	48 8b 45 e0          	mov    -0x20(%rbp),%rax
    17c4:	48 8b 55 f8          	mov    -0x8(%rbp),%rdx
    17c8:	48 89 50 38          	mov    %rdx,0x38(%rax)
    17cc:	eb 01                	jmp    17cf <rightRotate+0xde>
/home/feng/ecnu/ecnu-wys/timerSelf/libprobe/src/../utility/rbtree.h:73
    17ce:	90                   	nop
/home/feng/ecnu/ecnu-wys/timerSelf/libprobe/src/../utility/rbtree.h:86
    17cf:	5d                   	pop    %rbp
    17d0:	c3                   	ret    

00000000000017d1 <insertFixUp>:
insertFixUp():
/home/feng/ecnu/ecnu-wys/timerSelf/libprobe/src/../utility/rbtree.h:90
    17d1:	f3 0f 1e fa          	endbr64 
    17d5:	55                   	push   %rbp
    17d6:	48 89 e5             	mov    %rsp,%rbp
    17d9:	48 83 ec 20          	sub    $0x20,%rsp
    17dd:	48 89 7d e8          	mov    %rdi,-0x18(%rbp)
    17e1:	48 89 75 e0          	mov    %rsi,-0x20(%rbp)
/home/feng/ecnu/ecnu-wys/timerSelf/libprobe/src/../utility/rbtree.h:92
    17e5:	e9 72 03 00 00       	jmp    1b5c <insertFixUp+0x38b>
/home/feng/ecnu/ecnu-wys/timerSelf/libprobe/src/../utility/rbtree.h:97
    17ea:	48 8b 45 e0          	mov    -0x20(%rbp),%rax
    17ee:	48 8b 40 38          	mov    0x38(%rax),%rax
    17f2:	48 85 c0             	test   %rax,%rax
    17f5:	74 44                	je     183b <insertFixUp+0x6a>
/home/feng/ecnu/ecnu-wys/timerSelf/libprobe/src/../utility/rbtree.h:97 (discriminator 1)
    17f7:	48 8b 45 e0          	mov    -0x20(%rbp),%rax
    17fb:	48 8b 40 38          	mov    0x38(%rax),%rax
    17ff:	48 8b 40 38          	mov    0x38(%rax),%rax
    1803:	48 85 c0             	test   %rax,%rax
    1806:	74 33                	je     183b <insertFixUp+0x6a>
/home/feng/ecnu/ecnu-wys/timerSelf/libprobe/src/../utility/rbtree.h:97 (discriminator 2)
    1808:	48 8b 45 e0          	mov    -0x20(%rbp),%rax
    180c:	48 8b 50 38          	mov    0x38(%rax),%rdx
    1810:	48 8b 45 e0          	mov    -0x20(%rbp),%rax
    1814:	48 8b 40 38          	mov    0x38(%rax),%rax
    1818:	48 8b 40 38          	mov    0x38(%rax),%rax
    181c:	48 8b 40 28          	mov    0x28(%rax),%rax
    1820:	48 39 c2             	cmp    %rax,%rdx
    1823:	75 16                	jne    183b <insertFixUp+0x6a>
/home/feng/ecnu/ecnu-wys/timerSelf/libprobe/src/../utility/rbtree.h:98
    1825:	48 8b 45 e0          	mov    -0x20(%rbp),%rax
    1829:	48 8b 40 38          	mov    0x38(%rax),%rax
    182d:	48 8b 40 38          	mov    0x38(%rax),%rax
    1831:	48 8b 40 30          	mov    0x30(%rax),%rax
    1835:	48 89 45 f8          	mov    %rax,-0x8(%rbp)
    1839:	eb 14                	jmp    184f <insertFixUp+0x7e>
/home/feng/ecnu/ecnu-wys/timerSelf/libprobe/src/../utility/rbtree.h:100
    183b:	48 8b 45 e0          	mov    -0x20(%rbp),%rax
    183f:	48 8b 40 38          	mov    0x38(%rax),%rax
    1843:	48 8b 40 38          	mov    0x38(%rax),%rax
    1847:	48 8b 40 28          	mov    0x28(%rax),%rax
    184b:	48 89 45 f8          	mov    %rax,-0x8(%rbp)
/home/feng/ecnu/ecnu-wys/timerSelf/libprobe/src/../utility/rbtree.h:106
    184f:	48 83 7d f8 00       	cmpq   $0x0,-0x8(%rbp)
    1854:	75 15                	jne    186b <insertFixUp+0x9a>
/home/feng/ecnu/ecnu-wys/timerSelf/libprobe/src/../utility/rbtree.h:107
    1856:	48 8b 45 e0          	mov    -0x20(%rbp),%rax
    185a:	48 8b 40 38          	mov    0x38(%rax),%rax
    185e:	48 8b 40 38          	mov    0x38(%rax),%rax
    1862:	48 89 45 e0          	mov    %rax,-0x20(%rbp)
    1866:	e9 f1 02 00 00       	jmp    1b5c <insertFixUp+0x38b>
/home/feng/ecnu/ecnu-wys/timerSelf/libprobe/src/../utility/rbtree.h:108
    186b:	48 8b 45 f8          	mov    -0x8(%rbp),%rax
    186f:	0f b6 40 20          	movzbl 0x20(%rax),%eax
    1873:	3c 52                	cmp    $0x52,%al
    1875:	75 39                	jne    18b0 <insertFixUp+0xdf>
/home/feng/ecnu/ecnu-wys/timerSelf/libprobe/src/../utility/rbtree.h:110
    1877:	48 8b 45 f8          	mov    -0x8(%rbp),%rax
    187b:	c6 40 20 42          	movb   $0x42,0x20(%rax)
/home/feng/ecnu/ecnu-wys/timerSelf/libprobe/src/../utility/rbtree.h:111
    187f:	48 8b 45 e0          	mov    -0x20(%rbp),%rax
    1883:	48 8b 40 38          	mov    0x38(%rax),%rax
    1887:	c6 40 20 42          	movb   $0x42,0x20(%rax)
/home/feng/ecnu/ecnu-wys/timerSelf/libprobe/src/../utility/rbtree.h:112
    188b:	48 8b 45 e0          	mov    -0x20(%rbp),%rax
    188f:	48 8b 40 38          	mov    0x38(%rax),%rax
    1893:	48 8b 40 38          	mov    0x38(%rax),%rax
    1897:	c6 40 20 52          	movb   $0x52,0x20(%rax)
/home/feng/ecnu/ecnu-wys/timerSelf/libprobe/src/../utility/rbtree.h:113
    189b:	48 8b 45 e0          	mov    -0x20(%rbp),%rax
    189f:	48 8b 40 38          	mov    0x38(%rax),%rax
    18a3:	48 8b 40 38          	mov    0x38(%rax),%rax
    18a7:	48 89 45 e0          	mov    %rax,-0x20(%rbp)
    18ab:	e9 ac 02 00 00       	jmp    1b5c <insertFixUp+0x38b>
/home/feng/ecnu/ecnu-wys/timerSelf/libprobe/src/../utility/rbtree.h:122
    18b0:	48 8b 45 e0          	mov    -0x20(%rbp),%rax
    18b4:	48 8b 50 38          	mov    0x38(%rax),%rdx
    18b8:	48 8b 45 e0          	mov    -0x20(%rbp),%rax
    18bc:	48 8b 40 38          	mov    0x38(%rax),%rax
    18c0:	48 8b 40 38          	mov    0x38(%rax),%rax
    18c4:	48 8b 40 28          	mov    0x28(%rax),%rax
    18c8:	48 39 c2             	cmp    %rax,%rdx
    18cb:	75 6a                	jne    1937 <insertFixUp+0x166>
/home/feng/ecnu/ecnu-wys/timerSelf/libprobe/src/../utility/rbtree.h:123 (discriminator 1)
    18cd:	48 8b 45 e0          	mov    -0x20(%rbp),%rax
    18d1:	48 8b 40 38          	mov    0x38(%rax),%rax
    18d5:	48 8b 40 28          	mov    0x28(%rax),%rax
/home/feng/ecnu/ecnu-wys/timerSelf/libprobe/src/../utility/rbtree.h:122 (discriminator 1)
    18d9:	48 39 45 e0          	cmp    %rax,-0x20(%rbp)
    18dd:	75 58                	jne    1937 <insertFixUp+0x166>
/home/feng/ecnu/ecnu-wys/timerSelf/libprobe/src/../utility/rbtree.h:125
    18df:	48 8b 45 e0          	mov    -0x20(%rbp),%rax
    18e3:	48 8b 40 38          	mov    0x38(%rax),%rax
    18e7:	0f b6 40 20          	movzbl 0x20(%rax),%eax
    18eb:	88 45 f4             	mov    %al,-0xc(%rbp)
/home/feng/ecnu/ecnu-wys/timerSelf/libprobe/src/../utility/rbtree.h:126
    18ee:	48 8b 45 e0          	mov    -0x20(%rbp),%rax
    18f2:	48 8b 40 38          	mov    0x38(%rax),%rax
    18f6:	48 8b 50 38          	mov    0x38(%rax),%rdx
    18fa:	48 8b 45 e0          	mov    -0x20(%rbp),%rax
    18fe:	48 8b 40 38          	mov    0x38(%rax),%rax
    1902:	0f b6 52 20          	movzbl 0x20(%rdx),%edx
    1906:	88 50 20             	mov    %dl,0x20(%rax)
/home/feng/ecnu/ecnu-wys/timerSelf/libprobe/src/../utility/rbtree.h:127
    1909:	48 8b 45 e0          	mov    -0x20(%rbp),%rax
    190d:	48 8b 40 38          	mov    0x38(%rax),%rax
    1911:	48 8b 40 38          	mov    0x38(%rax),%rax
    1915:	0f b6 55 f4          	movzbl -0xc(%rbp),%edx
    1919:	88 50 20             	mov    %dl,0x20(%rax)
/home/feng/ecnu/ecnu-wys/timerSelf/libprobe/src/../utility/rbtree.h:128
    191c:	48 8b 45 e0          	mov    -0x20(%rbp),%rax
    1920:	48 8b 40 38          	mov    0x38(%rax),%rax
    1924:	48 8b 50 38          	mov    0x38(%rax),%rdx
    1928:	48 8b 45 e8          	mov    -0x18(%rbp),%rax
    192c:	48 89 d6             	mov    %rdx,%rsi
    192f:	48 89 c7             	mov    %rax,%rdi
    1932:	e8 ba fd ff ff       	call   16f1 <rightRotate>
/home/feng/ecnu/ecnu-wys/timerSelf/libprobe/src/../utility/rbtree.h:135
    1937:	48 8b 45 e0          	mov    -0x20(%rbp),%rax
    193b:	48 8b 40 38          	mov    0x38(%rax),%rax
    193f:	48 85 c0             	test   %rax,%rax
    1942:	0f 84 ab 00 00 00    	je     19f3 <insertFixUp+0x222>
/home/feng/ecnu/ecnu-wys/timerSelf/libprobe/src/../utility/rbtree.h:135 (discriminator 1)
    1948:	48 8b 45 e0          	mov    -0x20(%rbp),%rax
    194c:	48 8b 40 38          	mov    0x38(%rax),%rax
    1950:	48 8b 40 38          	mov    0x38(%rax),%rax
    1954:	48 85 c0             	test   %rax,%rax
    1957:	0f 84 96 00 00 00    	je     19f3 <insertFixUp+0x222>
/home/feng/ecnu/ecnu-wys/timerSelf/libprobe/src/../utility/rbtree.h:135 (discriminator 2)
    195d:	48 8b 45 e0          	mov    -0x20(%rbp),%rax
    1961:	48 8b 50 38          	mov    0x38(%rax),%rdx
    1965:	48 8b 45 e0          	mov    -0x20(%rbp),%rax
    1969:	48 8b 40 38          	mov    0x38(%rax),%rax
    196d:	48 8b 40 38          	mov    0x38(%rax),%rax
    1971:	48 8b 40 28          	mov    0x28(%rax),%rax
    1975:	48 39 c2             	cmp    %rax,%rdx
    1978:	75 79                	jne    19f3 <insertFixUp+0x222>
/home/feng/ecnu/ecnu-wys/timerSelf/libprobe/src/../utility/rbtree.h:136 (discriminator 3)
    197a:	48 8b 45 e0          	mov    -0x20(%rbp),%rax
    197e:	48 8b 40 38          	mov    0x38(%rax),%rax
    1982:	48 8b 40 30          	mov    0x30(%rax),%rax
/home/feng/ecnu/ecnu-wys/timerSelf/libprobe/src/../utility/rbtree.h:135 (discriminator 3)
    1986:	48 39 45 e0          	cmp    %rax,-0x20(%rbp)
    198a:	75 67                	jne    19f3 <insertFixUp+0x222>
/home/feng/ecnu/ecnu-wys/timerSelf/libprobe/src/../utility/rbtree.h:138
    198c:	48 8b 45 e0          	mov    -0x20(%rbp),%rax
    1990:	0f b6 40 20          	movzbl 0x20(%rax),%eax
    1994:	88 45 f5             	mov    %al,-0xb(%rbp)
/home/feng/ecnu/ecnu-wys/timerSelf/libprobe/src/../utility/rbtree.h:139
    1997:	48 8b 45 e0          	mov    -0x20(%rbp),%rax
    199b:	48 8b 40 38          	mov    0x38(%rax),%rax
    199f:	48 8b 40 38          	mov    0x38(%rax),%rax
    19a3:	0f b6 50 20          	movzbl 0x20(%rax),%edx
    19a7:	48 8b 45 e0          	mov    -0x20(%rbp),%rax
    19ab:	88 50 20             	mov    %dl,0x20(%rax)
/home/feng/ecnu/ecnu-wys/timerSelf/libprobe/src/../utility/rbtree.h:140
    19ae:	48 8b 45 e0          	mov    -0x20(%rbp),%rax
    19b2:	48 8b 40 38          	mov    0x38(%rax),%rax
    19b6:	48 8b 40 38          	mov    0x38(%rax),%rax
    19ba:	0f b6 55 f5          	movzbl -0xb(%rbp),%edx
    19be:	88 50 20             	mov    %dl,0x20(%rax)
/home/feng/ecnu/ecnu-wys/timerSelf/libprobe/src/../utility/rbtree.h:141
    19c1:	48 8b 45 e0          	mov    -0x20(%rbp),%rax
    19c5:	48 8b 50 38          	mov    0x38(%rax),%rdx
    19c9:	48 8b 45 e8          	mov    -0x18(%rbp),%rax
    19cd:	48 89 d6             	mov    %rdx,%rsi
    19d0:	48 89 c7             	mov    %rax,%rdi
    19d3:	e8 39 fc ff ff       	call   1611 <LeftRotate>
/home/feng/ecnu/ecnu-wys/timerSelf/libprobe/src/../utility/rbtree.h:142
    19d8:	48 8b 45 e0          	mov    -0x20(%rbp),%rax
    19dc:	48 8b 40 38          	mov    0x38(%rax),%rax
    19e0:	48 8b 50 38          	mov    0x38(%rax),%rdx
    19e4:	48 8b 45 e8          	mov    -0x18(%rbp),%rax
    19e8:	48 89 d6             	mov    %rdx,%rsi
    19eb:	48 89 c7             	mov    %rax,%rdi
    19ee:	e8 fe fc ff ff       	call   16f1 <rightRotate>
/home/feng/ecnu/ecnu-wys/timerSelf/libprobe/src/../utility/rbtree.h:148
    19f3:	48 8b 45 e0          	mov    -0x20(%rbp),%rax
    19f7:	48 8b 40 38          	mov    0x38(%rax),%rax
    19fb:	48 85 c0             	test   %rax,%rax
    19fe:	0f 84 9c 00 00 00    	je     1aa0 <insertFixUp+0x2cf>
/home/feng/ecnu/ecnu-wys/timerSelf/libprobe/src/../utility/rbtree.h:148 (discriminator 1)
    1a04:	48 8b 45 e0          	mov    -0x20(%rbp),%rax
    1a08:	48 8b 40 38          	mov    0x38(%rax),%rax
    1a0c:	48 8b 40 38          	mov    0x38(%rax),%rax
    1a10:	48 85 c0             	test   %rax,%rax
    1a13:	0f 84 87 00 00 00    	je     1aa0 <insertFixUp+0x2cf>
/home/feng/ecnu/ecnu-wys/timerSelf/libprobe/src/../utility/rbtree.h:149 (discriminator 2)
    1a19:	48 8b 45 e0          	mov    -0x20(%rbp),%rax
    1a1d:	48 8b 50 38          	mov    0x38(%rax),%rdx
    1a21:	48 8b 45 e0          	mov    -0x20(%rbp),%rax
    1a25:	48 8b 40 38          	mov    0x38(%rax),%rax
    1a29:	48 8b 40 38          	mov    0x38(%rax),%rax
    1a2d:	48 8b 40 30          	mov    0x30(%rax),%rax
/home/feng/ecnu/ecnu-wys/timerSelf/libprobe/src/../utility/rbtree.h:148 (discriminator 2)
    1a31:	48 39 c2             	cmp    %rax,%rdx
    1a34:	75 6a                	jne    1aa0 <insertFixUp+0x2cf>
/home/feng/ecnu/ecnu-wys/timerSelf/libprobe/src/../utility/rbtree.h:150
    1a36:	48 8b 45 e0          	mov    -0x20(%rbp),%rax
    1a3a:	48 8b 40 38          	mov    0x38(%rax),%rax
    1a3e:	48 8b 40 30          	mov    0x30(%rax),%rax
/home/feng/ecnu/ecnu-wys/timerSelf/libprobe/src/../utility/rbtree.h:149
    1a42:	48 39 45 e0          	cmp    %rax,-0x20(%rbp)
    1a46:	75 58                	jne    1aa0 <insertFixUp+0x2cf>
/home/feng/ecnu/ecnu-wys/timerSelf/libprobe/src/../utility/rbtree.h:152
    1a48:	48 8b 45 e0          	mov    -0x20(%rbp),%rax
    1a4c:	48 8b 40 38          	mov    0x38(%rax),%rax
    1a50:	0f b6 40 20          	movzbl 0x20(%rax),%eax
    1a54:	88 45 f6             	mov    %al,-0xa(%rbp)
/home/feng/ecnu/ecnu-wys/timerSelf/libprobe/src/../utility/rbtree.h:153
    1a57:	48 8b 45 e0          	mov    -0x20(%rbp),%rax
    1a5b:	48 8b 40 38          	mov    0x38(%rax),%rax
    1a5f:	48 8b 50 38          	mov    0x38(%rax),%rdx
    1a63:	48 8b 45 e0          	mov    -0x20(%rbp),%rax
    1a67:	48 8b 40 38          	mov    0x38(%rax),%rax
    1a6b:	0f b6 52 20          	movzbl 0x20(%rdx),%edx
    1a6f:	88 50 20             	mov    %dl,0x20(%rax)
/home/feng/ecnu/ecnu-wys/timerSelf/libprobe/src/../utility/rbtree.h:154
    1a72:	48 8b 45 e0          	mov    -0x20(%rbp),%rax
    1a76:	48 8b 40 38          	mov    0x38(%rax),%rax
    1a7a:	48 8b 40 38          	mov    0x38(%rax),%rax
    1a7e:	0f b6 55 f6          	movzbl -0xa(%rbp),%edx
    1a82:	88 50 20             	mov    %dl,0x20(%rax)
/home/feng/ecnu/ecnu-wys/timerSelf/libprobe/src/../utility/rbtree.h:155
    1a85:	48 8b 45 e0          	mov    -0x20(%rbp),%rax
    1a89:	48 8b 40 38          	mov    0x38(%rax),%rax
    1a8d:	48 8b 50 38          	mov    0x38(%rax),%rdx
    1a91:	48 8b 45 e8          	mov    -0x18(%rbp),%rax
    1a95:	48 89 d6             	mov    %rdx,%rsi
    1a98:	48 89 c7             	mov    %rax,%rdi
    1a9b:	e8 71 fb ff ff       	call   1611 <LeftRotate>
/home/feng/ecnu/ecnu-wys/timerSelf/libprobe/src/../utility/rbtree.h:162
    1aa0:	48 8b 45 e0          	mov    -0x20(%rbp),%rax
    1aa4:	48 8b 40 38          	mov    0x38(%rax),%rax
    1aa8:	48 85 c0             	test   %rax,%rax
    1aab:	0f 84 ab 00 00 00    	je     1b5c <insertFixUp+0x38b>
/home/feng/ecnu/ecnu-wys/timerSelf/libprobe/src/../utility/rbtree.h:162 (discriminator 1)
    1ab1:	48 8b 45 e0          	mov    -0x20(%rbp),%rax
    1ab5:	48 8b 40 38          	mov    0x38(%rax),%rax
    1ab9:	48 8b 40 38          	mov    0x38(%rax),%rax
    1abd:	48 85 c0             	test   %rax,%rax
    1ac0:	0f 84 96 00 00 00    	je     1b5c <insertFixUp+0x38b>
/home/feng/ecnu/ecnu-wys/timerSelf/libprobe/src/../utility/rbtree.h:162 (discriminator 2)
    1ac6:	48 8b 45 e0          	mov    -0x20(%rbp),%rax
    1aca:	48 8b 50 38          	mov    0x38(%rax),%rdx
    1ace:	48 8b 45 e0          	mov    -0x20(%rbp),%rax
    1ad2:	48 8b 40 38          	mov    0x38(%rax),%rax
    1ad6:	48 8b 40 38          	mov    0x38(%rax),%rax
    1ada:	48 8b 40 30          	mov    0x30(%rax),%rax
    1ade:	48 39 c2             	cmp    %rax,%rdx
    1ae1:	75 79                	jne    1b5c <insertFixUp+0x38b>
/home/feng/ecnu/ecnu-wys/timerSelf/libprobe/src/../utility/rbtree.h:163 (discriminator 3)
    1ae3:	48 8b 45 e0          	mov    -0x20(%rbp),%rax
    1ae7:	48 8b 40 38          	mov    0x38(%rax),%rax
    1aeb:	48 8b 40 28          	mov    0x28(%rax),%rax
/home/feng/ecnu/ecnu-wys/timerSelf/libprobe/src/../utility/rbtree.h:162 (discriminator 3)
    1aef:	48 39 45 e0          	cmp    %rax,-0x20(%rbp)
    1af3:	75 67                	jne    1b5c <insertFixUp+0x38b>
/home/feng/ecnu/ecnu-wys/timerSelf/libprobe/src/../utility/rbtree.h:165
    1af5:	48 8b 45 e0          	mov    -0x20(%rbp),%rax
    1af9:	0f b6 40 20          	movzbl 0x20(%rax),%eax
    1afd:	88 45 f7             	mov    %al,-0x9(%rbp)
/home/feng/ecnu/ecnu-wys/timerSelf/libprobe/src/../utility/rbtree.h:166
    1b00:	48 8b 45 e0          	mov    -0x20(%rbp),%rax
    1b04:	48 8b 40 38          	mov    0x38(%rax),%rax
    1b08:	48 8b 40 38          	mov    0x38(%rax),%rax
    1b0c:	0f b6 50 20          	movzbl 0x20(%rax),%edx
    1b10:	48 8b 45 e0          	mov    -0x20(%rbp),%rax
    1b14:	88 50 20             	mov    %dl,0x20(%rax)
/home/feng/ecnu/ecnu-wys/timerSelf/libprobe/src/../utility/rbtree.h:167
    1b17:	48 8b 45 e0          	mov    -0x20(%rbp),%rax
    1b1b:	48 8b 40 38          	mov    0x38(%rax),%rax
    1b1f:	48 8b 40 38          	mov    0x38(%rax),%rax
    1b23:	0f b6 55 f7          	movzbl -0x9(%rbp),%edx
    1b27:	88 50 20             	mov    %dl,0x20(%rax)
/home/feng/ecnu/ecnu-wys/timerSelf/libprobe/src/../utility/rbtree.h:168
    1b2a:	48 8b 45 e0          	mov    -0x20(%rbp),%rax
    1b2e:	48 8b 50 38          	mov    0x38(%rax),%rdx
    1b32:	48 8b 45 e8          	mov    -0x18(%rbp),%rax
    1b36:	48 89 d6             	mov    %rdx,%rsi
    1b39:	48 89 c7             	mov    %rax,%rdi
    1b3c:	e8 b0 fb ff ff       	call   16f1 <rightRotate>
/home/feng/ecnu/ecnu-wys/timerSelf/libprobe/src/../utility/rbtree.h:169
    1b41:	48 8b 45 e0          	mov    -0x20(%rbp),%rax
    1b45:	48 8b 40 38          	mov    0x38(%rax),%rax
    1b49:	48 8b 50 38          	mov    0x38(%rax),%rdx
    1b4d:	48 8b 45 e8          	mov    -0x18(%rbp),%rax
    1b51:	48 89 d6             	mov    %rdx,%rsi
    1b54:	48 89 c7             	mov    %rax,%rdi
    1b57:	e8 b5 fa ff ff       	call   1611 <LeftRotate>
/home/feng/ecnu/ecnu-wys/timerSelf/libprobe/src/../utility/rbtree.h:92
    1b5c:	48 8b 45 e8          	mov    -0x18(%rbp),%rax
    1b60:	48 8b 00             	mov    (%rax),%rax
    1b63:	48 39 45 e0          	cmp    %rax,-0x20(%rbp)
    1b67:	74 36                	je     1b9f <insertFixUp+0x3ce>
/home/feng/ecnu/ecnu-wys/timerSelf/libprobe/src/../utility/rbtree.h:92 (discriminator 1)
    1b69:	48 8b 45 e8          	mov    -0x18(%rbp),%rax
    1b6d:	48 8b 00             	mov    (%rax),%rax
    1b70:	48 8b 40 28          	mov    0x28(%rax),%rax
    1b74:	48 39 45 e0          	cmp    %rax,-0x20(%rbp)
    1b78:	74 25                	je     1b9f <insertFixUp+0x3ce>
/home/feng/ecnu/ecnu-wys/timerSelf/libprobe/src/../utility/rbtree.h:92 (discriminator 2)
    1b7a:	48 8b 45 e8          	mov    -0x18(%rbp),%rax
    1b7e:	48 8b 00             	mov    (%rax),%rax
    1b81:	48 8b 40 30          	mov    0x30(%rax),%rax
    1b85:	48 39 45 e0          	cmp    %rax,-0x20(%rbp)
    1b89:	74 14                	je     1b9f <insertFixUp+0x3ce>
/home/feng/ecnu/ecnu-wys/timerSelf/libprobe/src/../utility/rbtree.h:92 (discriminator 3)
    1b8b:	48 8b 45 e0          	mov    -0x20(%rbp),%rax
    1b8f:	48 8b 40 38          	mov    0x38(%rax),%rax
    1b93:	0f b6 40 20          	movzbl 0x20(%rax),%eax
    1b97:	3c 52                	cmp    $0x52,%al
    1b99:	0f 84 4b fc ff ff    	je     17ea <insertFixUp+0x19>
/home/feng/ecnu/ecnu-wys/timerSelf/libprobe/src/../utility/rbtree.h:173
    1b9f:	48 8b 45 e8          	mov    -0x18(%rbp),%rax
    1ba3:	48 8b 00             	mov    (%rax),%rax
    1ba6:	c6 40 20 42          	movb   $0x42,0x20(%rax)
/home/feng/ecnu/ecnu-wys/timerSelf/libprobe/src/../utility/rbtree.h:174
    1baa:	90                   	nop
    1bab:	c9                   	leave  
    1bac:	c3                   	ret    

0000000000001bad <insert>:
insert():
/home/feng/ecnu/ecnu-wys/timerSelf/libprobe/src/../utility/rbtree.h:178
    1bad:	f3 0f 1e fa          	endbr64 
    1bb1:	55                   	push   %rbp
    1bb2:	48 89 e5             	mov    %rsp,%rbp
    1bb5:	48 83 ec 30          	sub    $0x30,%rsp
    1bb9:	48 89 7d d8          	mov    %rdi,-0x28(%rbp)
/home/feng/ecnu/ecnu-wys/timerSelf/libprobe/src/../utility/rbtree.h:180
    1bbd:	bf 40 00 00 00       	mov    $0x40,%edi
    1bc2:	e8 d9 f5 ff ff       	call   11a0 <malloc@plt>
    1bc7:	48 89 45 f8          	mov    %rax,-0x8(%rbp)
/home/feng/ecnu/ecnu-wys/timerSelf/libprobe/src/../utility/rbtree.h:181
    1bcb:	48 8b 4d f8          	mov    -0x8(%rbp),%rcx
    1bcf:	48 8b 45 10          	mov    0x10(%rbp),%rax
    1bd3:	48 8b 55 18          	mov    0x18(%rbp),%rdx
    1bd7:	48 89 01             	mov    %rax,(%rcx)
    1bda:	48 89 51 08          	mov    %rdx,0x8(%rcx)
    1bde:	48 8b 45 20          	mov    0x20(%rbp),%rax
    1be2:	48 8b 55 28          	mov    0x28(%rbp),%rdx
    1be6:	48 89 41 10          	mov    %rax,0x10(%rcx)
    1bea:	48 89 51 18          	mov    %rdx,0x18(%rcx)
/home/feng/ecnu/ecnu-wys/timerSelf/libprobe/src/../utility/rbtree.h:182
    1bee:	48 8b 45 f8          	mov    -0x8(%rbp),%rax
    1bf2:	48 c7 40 38 00 00 00 	movq   $0x0,0x38(%rax)
    1bf9:	00 
    1bfa:	48 8b 45 f8          	mov    -0x8(%rbp),%rax
    1bfe:	48 8b 50 38          	mov    0x38(%rax),%rdx
    1c02:	48 8b 45 f8          	mov    -0x8(%rbp),%rax
    1c06:	48 89 50 30          	mov    %rdx,0x30(%rax)
    1c0a:	48 8b 45 f8          	mov    -0x8(%rbp),%rax
    1c0e:	48 8b 50 30          	mov    0x30(%rax),%rdx
    1c12:	48 8b 45 f8          	mov    -0x8(%rbp),%rax
    1c16:	48 89 50 28          	mov    %rdx,0x28(%rax)
/home/feng/ecnu/ecnu-wys/timerSelf/libprobe/src/../utility/rbtree.h:185
    1c1a:	48 8b 45 d8          	mov    -0x28(%rbp),%rax
    1c1e:	48 8b 00             	mov    (%rax),%rax
    1c21:	48 85 c0             	test   %rax,%rax
    1c24:	75 18                	jne    1c3e <insert+0x91>
/home/feng/ecnu/ecnu-wys/timerSelf/libprobe/src/../utility/rbtree.h:187
    1c26:	48 8b 45 f8          	mov    -0x8(%rbp),%rax
    1c2a:	c6 40 20 42          	movb   $0x42,0x20(%rax)
/home/feng/ecnu/ecnu-wys/timerSelf/libprobe/src/../utility/rbtree.h:188
    1c2e:	48 8b 45 d8          	mov    -0x28(%rbp),%rax
    1c32:	48 8b 55 f8          	mov    -0x8(%rbp),%rdx
    1c36:	48 89 10             	mov    %rdx,(%rax)
/home/feng/ecnu/ecnu-wys/timerSelf/libprobe/src/../utility/rbtree.h:215
    1c39:	e9 9f 00 00 00       	jmp    1cdd <insert+0x130>
/home/feng/ecnu/ecnu-wys/timerSelf/libprobe/src/../utility/rbtree.h:192
    1c3e:	48 c7 45 e8 00 00 00 	movq   $0x0,-0x18(%rbp)
    1c45:	00 
/home/feng/ecnu/ecnu-wys/timerSelf/libprobe/src/../utility/rbtree.h:193
    1c46:	48 8b 45 d8          	mov    -0x28(%rbp),%rax
    1c4a:	48 8b 00             	mov    (%rax),%rax
    1c4d:	48 89 45 f0          	mov    %rax,-0x10(%rbp)
/home/feng/ecnu/ecnu-wys/timerSelf/libprobe/src/../utility/rbtree.h:196
    1c51:	eb 32                	jmp    1c85 <insert+0xd8>
/home/feng/ecnu/ecnu-wys/timerSelf/libprobe/src/../utility/rbtree.h:198
    1c53:	48 8b 45 f0          	mov    -0x10(%rbp),%rax
    1c57:	48 89 45 e8          	mov    %rax,-0x18(%rbp)
/home/feng/ecnu/ecnu-wys/timerSelf/libprobe/src/../utility/rbtree.h:199
    1c5b:	48 8b 45 f8          	mov    -0x8(%rbp),%rax
    1c5f:	8b 10                	mov    (%rax),%edx
    1c61:	48 8b 45 f0          	mov    -0x10(%rbp),%rax
    1c65:	8b 00                	mov    (%rax),%eax
    1c67:	39 c2                	cmp    %eax,%edx
    1c69:	73 0e                	jae    1c79 <insert+0xcc>
/home/feng/ecnu/ecnu-wys/timerSelf/libprobe/src/../utility/rbtree.h:200
    1c6b:	48 8b 45 f0          	mov    -0x10(%rbp),%rax
    1c6f:	48 8b 40 28          	mov    0x28(%rax),%rax
    1c73:	48 89 45 f0          	mov    %rax,-0x10(%rbp)
    1c77:	eb 0c                	jmp    1c85 <insert+0xd8>
/home/feng/ecnu/ecnu-wys/timerSelf/libprobe/src/../utility/rbtree.h:202
    1c79:	48 8b 45 f0          	mov    -0x10(%rbp),%rax
    1c7d:	48 8b 40 30          	mov    0x30(%rax),%rax
    1c81:	48 89 45 f0          	mov    %rax,-0x10(%rbp)
/home/feng/ecnu/ecnu-wys/timerSelf/libprobe/src/../utility/rbtree.h:196
    1c85:	48 83 7d f0 00       	cmpq   $0x0,-0x10(%rbp)
    1c8a:	75 c7                	jne    1c53 <insert+0xa6>
/home/feng/ecnu/ecnu-wys/timerSelf/libprobe/src/../utility/rbtree.h:204
    1c8c:	48 8b 45 f8          	mov    -0x8(%rbp),%rax
    1c90:	48 8b 55 e8          	mov    -0x18(%rbp),%rdx
    1c94:	48 89 50 38          	mov    %rdx,0x38(%rax)
/home/feng/ecnu/ecnu-wys/timerSelf/libprobe/src/../utility/rbtree.h:205
    1c98:	48 8b 45 f8          	mov    -0x8(%rbp),%rax
    1c9c:	8b 10                	mov    (%rax),%edx
    1c9e:	48 8b 45 e8          	mov    -0x18(%rbp),%rax
    1ca2:	8b 00                	mov    (%rax),%eax
    1ca4:	39 c2                	cmp    %eax,%edx
    1ca6:	76 0e                	jbe    1cb6 <insert+0x109>
/home/feng/ecnu/ecnu-wys/timerSelf/libprobe/src/../utility/rbtree.h:206
    1ca8:	48 8b 45 e8          	mov    -0x18(%rbp),%rax
    1cac:	48 8b 55 f8          	mov    -0x8(%rbp),%rdx
    1cb0:	48 89 50 30          	mov    %rdx,0x30(%rax)
    1cb4:	eb 0c                	jmp    1cc2 <insert+0x115>
/home/feng/ecnu/ecnu-wys/timerSelf/libprobe/src/../utility/rbtree.h:208
    1cb6:	48 8b 45 e8          	mov    -0x18(%rbp),%rax
    1cba:	48 8b 55 f8          	mov    -0x8(%rbp),%rdx
    1cbe:	48 89 50 28          	mov    %rdx,0x28(%rax)
/home/feng/ecnu/ecnu-wys/timerSelf/libprobe/src/../utility/rbtree.h:209
    1cc2:	48 8b 45 f8          	mov    -0x8(%rbp),%rax
    1cc6:	c6 40 20 52          	movb   $0x52,0x20(%rax)
/home/feng/ecnu/ecnu-wys/timerSelf/libprobe/src/../utility/rbtree.h:213
    1cca:	48 8b 55 f8          	mov    -0x8(%rbp),%rdx
    1cce:	48 8b 45 d8          	mov    -0x28(%rbp),%rax
    1cd2:	48 89 d6             	mov    %rdx,%rsi
    1cd5:	48 89 c7             	mov    %rax,%rdi
    1cd8:	e8 f4 fa ff ff       	call   17d1 <insertFixUp>
/home/feng/ecnu/ecnu-wys/timerSelf/libprobe/src/../utility/rbtree.h:215
    1cdd:	90                   	nop
    1cde:	c9                   	leave  
    1cdf:	c3                   	ret    

0000000000001ce0 <inorder>:
inorder():
/home/feng/ecnu/ecnu-wys/timerSelf/libprobe/src/../utility/rbtree.h:219
    1ce0:	f3 0f 1e fa          	endbr64 
    1ce4:	55                   	push   %rbp
    1ce5:	48 89 e5             	mov    %rsp,%rbp
    1ce8:	48 83 ec 20          	sub    $0x20,%rsp
    1cec:	48 89 7d f8          	mov    %rdi,-0x8(%rbp)
    1cf0:	89 75 f4             	mov    %esi,-0xc(%rbp)
    1cf3:	48 89 55 e8          	mov    %rdx,-0x18(%rbp)
/home/feng/ecnu/ecnu-wys/timerSelf/libprobe/src/../utility/rbtree.h:221
    1cf7:	48 83 7d f8 00       	cmpq   $0x0,-0x8(%rbp)
    1cfc:	0f 84 29 01 00 00    	je     1e2b <inorder+0x14b>
/home/feng/ecnu/ecnu-wys/timerSelf/libprobe/src/../utility/rbtree.h:223
    1d02:	48 8b 45 f8          	mov    -0x8(%rbp),%rax
    1d06:	48 8b 40 28          	mov    0x28(%rax),%rax
    1d0a:	48 8b 55 e8          	mov    -0x18(%rbp),%rdx
    1d0e:	8b 4d f4             	mov    -0xc(%rbp),%ecx
    1d11:	89 ce                	mov    %ecx,%esi
    1d13:	48 89 c7             	mov    %rax,%rdi
    1d16:	e8 c5 ff ff ff       	call   1ce0 <inorder>
/home/feng/ecnu/ecnu-wys/timerSelf/libprobe/src/../utility/rbtree.h:229
    1d1b:	48 8b 45 f8          	mov    -0x8(%rbp),%rax
    1d1f:	8b 00                	mov    (%rax),%eax
    1d21:	89 c0                	mov    %eax,%eax
    1d23:	48 8d 14 c5 00 00 00 	lea    0x0(,%rax,8),%rdx
    1d2a:	00 
    1d2b:	48 8d 05 4e b5 8a 09 	lea    0x98ab54e(%rip),%rax        # 98ad280 <addr2int>
    1d32:	48 8b 0c 02          	mov    (%rdx,%rax,1),%rcx
    1d36:	8b 45 f4             	mov    -0xc(%rbp),%eax
    1d39:	48 98                	cltq   
    1d3b:	48 8d 14 c5 00 00 00 	lea    0x0(,%rax,8),%rdx
    1d42:	00 
    1d43:	48 8d 05 36 b5 8a 09 	lea    0x98ab536(%rip),%rax        # 98ad280 <addr2int>
    1d4a:	48 8b 14 02          	mov    (%rdx,%rax,1),%rdx
    1d4e:	48 8b 45 e8          	mov    -0x18(%rbp),%rax
    1d52:	48 8d 35 ec 12 00 00 	lea    0x12ec(%rip),%rsi        # 3045 <_IO_stdin_used+0x45>
    1d59:	48 89 c7             	mov    %rax,%rdi
    1d5c:	b8 00 00 00 00       	mov    $0x0,%eax
    1d61:	e8 fa f4 ff ff       	call   1260 <fprintf@plt>
/home/feng/ecnu/ecnu-wys/timerSelf/libprobe/src/../utility/rbtree.h:232
    1d66:	48 8b 45 f8          	mov    -0x8(%rbp),%rax
    1d6a:	48 8b 50 18          	mov    0x18(%rax),%rdx
    1d6e:	48 89 d0             	mov    %rdx,%rax
    1d71:	48 c1 e0 02          	shl    $0x2,%rax
    1d75:	48 01 d0             	add    %rdx,%rax
    1d78:	48 01 c0             	add    %rax,%rax
    1d7b:	48 89 c1             	mov    %rax,%rcx
    1d7e:	48 ba 19 86 61 18 86 	movabs $0x8618618618618619,%rdx
    1d85:	61 18 86 
    1d88:	48 89 c8             	mov    %rcx,%rax
    1d8b:	48 f7 e2             	mul    %rdx
    1d8e:	48 89 c8             	mov    %rcx,%rax
    1d91:	48 29 d0             	sub    %rdx,%rax
    1d94:	48 d1 e8             	shr    %rax
    1d97:	48 01 d0             	add    %rdx,%rax
    1d9a:	48 c1 e8 04          	shr    $0x4,%rax
    1d9e:	48 89 c6             	mov    %rax,%rsi
    1da1:	48 8b 45 f8          	mov    -0x8(%rbp),%rax
    1da5:	48 8b 50 08          	mov    0x8(%rax),%rdx
    1da9:	48 89 d0             	mov    %rdx,%rax
    1dac:	48 c1 e0 02          	shl    $0x2,%rax
    1db0:	48 01 d0             	add    %rdx,%rax
    1db3:	48 01 c0             	add    %rax,%rax
    1db6:	48 89 c1             	mov    %rax,%rcx
    1db9:	48 ba 19 86 61 18 86 	movabs $0x8618618618618619,%rdx
    1dc0:	61 18 86 
    1dc3:	48 89 c8             	mov    %rcx,%rax
    1dc6:	48 f7 e2             	mul    %rdx
    1dc9:	48 89 c8             	mov    %rcx,%rax
    1dcc:	48 29 d0             	sub    %rdx,%rax
    1dcf:	48 d1 e8             	shr    %rax
    1dd2:	48 01 d0             	add    %rdx,%rax
    1dd5:	48 c1 e8 04          	shr    $0x4,%rax
    1dd9:	48 89 c1             	mov    %rax,%rcx
    1ddc:	48 8b 45 f8          	mov    -0x8(%rbp),%rax
    1de0:	48 8b 50 10          	mov    0x10(%rax),%rdx
    1de4:	48 8b 45 e8          	mov    -0x18(%rbp),%rax
    1de8:	49 89 f0             	mov    %rsi,%r8
    1deb:	48 8d 35 5c 12 00 00 	lea    0x125c(%rip),%rsi        # 304e <_IO_stdin_used+0x4e>
    1df2:	48 89 c7             	mov    %rax,%rdi
    1df5:	b8 00 00 00 00       	mov    $0x0,%eax
    1dfa:	e8 61 f4 ff ff       	call   1260 <fprintf@plt>
/home/feng/ecnu/ecnu-wys/timerSelf/libprobe/src/../utility/rbtree.h:233
    1dff:	48 8b 45 e8          	mov    -0x18(%rbp),%rax
    1e03:	48 89 c6             	mov    %rax,%rsi
    1e06:	bf 0a 00 00 00       	mov    $0xa,%edi
    1e0b:	e8 c0 f3 ff ff       	call   11d0 <fputc@plt>
/home/feng/ecnu/ecnu-wys/timerSelf/libprobe/src/../utility/rbtree.h:241
    1e10:	48 8b 45 f8          	mov    -0x8(%rbp),%rax
    1e14:	48 8b 40 30          	mov    0x30(%rax),%rax
    1e18:	48 8b 55 e8          	mov    -0x18(%rbp),%rdx
    1e1c:	8b 4d f4             	mov    -0xc(%rbp),%ecx
    1e1f:	89 ce                	mov    %ecx,%esi
    1e21:	48 89 c7             	mov    %rax,%rdi
    1e24:	e8 b7 fe ff ff       	call   1ce0 <inorder>
    1e29:	eb 01                	jmp    1e2c <inorder+0x14c>
/home/feng/ecnu/ecnu-wys/timerSelf/libprobe/src/../utility/rbtree.h:222
    1e2b:	90                   	nop
/home/feng/ecnu/ecnu-wys/timerSelf/libprobe/src/../utility/rbtree.h:242
    1e2c:	c9                   	leave  
    1e2d:	c3                   	ret    

0000000000001e2e <search>:
search():
/home/feng/ecnu/ecnu-wys/timerSelf/libprobe/src/../utility/rbtree.h:246
    1e2e:	f3 0f 1e fa          	endbr64 
    1e32:	55                   	push   %rbp
    1e33:	48 89 e5             	mov    %rsp,%rbp
    1e36:	48 83 ec 20          	sub    $0x20,%rsp
    1e3a:	48 89 7d f8          	mov    %rdi,-0x8(%rbp)
    1e3e:	89 75 f4             	mov    %esi,-0xc(%rbp)
    1e41:	89 55 f0             	mov    %edx,-0x10(%rbp)
    1e44:	48 89 4d e8          	mov    %rcx,-0x18(%rbp)
/home/feng/ecnu/ecnu-wys/timerSelf/libprobe/src/../utility/rbtree.h:247
    1e48:	48 83 7d f8 00       	cmpq   $0x0,-0x8(%rbp)
    1e4d:	0f 84 0b 01 00 00    	je     1f5e <search+0x130>
/home/feng/ecnu/ecnu-wys/timerSelf/libprobe/src/../utility/rbtree.h:250
    1e53:	48 8b 45 f8          	mov    -0x8(%rbp),%rax
    1e57:	8b 10                	mov    (%rax),%edx
    1e59:	8b 45 f4             	mov    -0xc(%rbp),%eax
    1e5c:	39 c2                	cmp    %eax,%edx
    1e5e:	73 22                	jae    1e82 <search+0x54>
/home/feng/ecnu/ecnu-wys/timerSelf/libprobe/src/../utility/rbtree.h:251
    1e60:	48 8b 45 f8          	mov    -0x8(%rbp),%rax
    1e64:	48 8b 40 30          	mov    0x30(%rax),%rax
    1e68:	48 8b 4d e8          	mov    -0x18(%rbp),%rcx
    1e6c:	8b 55 f0             	mov    -0x10(%rbp),%edx
    1e6f:	8b 75 f4             	mov    -0xc(%rbp),%esi
    1e72:	48 89 c7             	mov    %rax,%rdi
    1e75:	e8 b4 ff ff ff       	call   1e2e <search>
    1e7a:	89 45 f0             	mov    %eax,-0x10(%rbp)
    1e7d:	e9 dc 00 00 00       	jmp    1f5e <search+0x130>
/home/feng/ecnu/ecnu-wys/timerSelf/libprobe/src/../utility/rbtree.h:252
    1e82:	48 8b 45 f8          	mov    -0x8(%rbp),%rax
    1e86:	8b 10                	mov    (%rax),%edx
    1e88:	8b 45 f4             	mov    -0xc(%rbp),%eax
    1e8b:	39 c2                	cmp    %eax,%edx
    1e8d:	76 22                	jbe    1eb1 <search+0x83>
/home/feng/ecnu/ecnu-wys/timerSelf/libprobe/src/../utility/rbtree.h:253
    1e8f:	48 8b 45 f8          	mov    -0x8(%rbp),%rax
    1e93:	48 8b 40 28          	mov    0x28(%rax),%rax
    1e97:	48 8b 4d e8          	mov    -0x18(%rbp),%rcx
    1e9b:	8b 55 f0             	mov    -0x10(%rbp),%edx
    1e9e:	8b 75 f4             	mov    -0xc(%rbp),%esi
    1ea1:	48 89 c7             	mov    %rax,%rdi
    1ea4:	e8 85 ff ff ff       	call   1e2e <search>
    1ea9:	89 45 f0             	mov    %eax,-0x10(%rbp)
    1eac:	e9 ad 00 00 00       	jmp    1f5e <search+0x130>
/home/feng/ecnu/ecnu-wys/timerSelf/libprobe/src/../utility/rbtree.h:256
    1eb1:	48 8b 45 f8          	mov    -0x8(%rbp),%rax
    1eb5:	8b 10                	mov    (%rax),%edx
    1eb7:	8b 45 f4             	mov    -0xc(%rbp),%eax
    1eba:	39 c2                	cmp    %eax,%edx
    1ebc:	0f 85 95 00 00 00    	jne    1f57 <search+0x129>
/home/feng/ecnu/ecnu-wys/timerSelf/libprobe/src/../utility/rbtree.h:258
    1ec2:	48 8b 45 f8          	mov    -0x8(%rbp),%rax
    1ec6:	48 8b 40 10          	mov    0x10(%rax),%rax
    1eca:	48 8d 50 01          	lea    0x1(%rax),%rdx
    1ece:	48 8b 45 f8          	mov    -0x8(%rbp),%rax
    1ed2:	48 89 50 10          	mov    %rdx,0x10(%rax)
/home/feng/ecnu/ecnu-wys/timerSelf/libprobe/src/../utility/rbtree.h:259
    1ed6:	b8 00 00 00 00       	mov    $0x0,%eax
    1edb:	e8 11 f7 ff ff       	call   15f1 <perf_counter>
    1ee0:	48 89 05 69 31 00 00 	mov    %rax,0x3169(%rip)        # 5050 <ic>
/home/feng/ecnu/ecnu-wys/timerSelf/libprobe/src/../utility/rbtree.h:260
    1ee7:	48 8b 45 f8          	mov    -0x8(%rbp),%rax
    1eeb:	48 8b 50 08          	mov    0x8(%rax),%rdx
    1eef:	48 8b 05 5a 31 00 00 	mov    0x315a(%rip),%rax        # 5050 <ic>
    1ef6:	48 2b 45 e8          	sub    -0x18(%rbp),%rax
    1efa:	48 01 c2             	add    %rax,%rdx
    1efd:	48 8b 45 f8          	mov    -0x8(%rbp),%rax
    1f01:	48 89 50 08          	mov    %rdx,0x8(%rax)
/home/feng/ecnu/ecnu-wys/timerSelf/libprobe/src/../utility/rbtree.h:262
    1f05:	48 8d 05 b4 e5 c4 04 	lea    0x4c4e5b4(%rip),%rax        # 4c504c0 <__profile__shell_time>
    1f0c:	48 89 c7             	mov    %rax,%rdi
    1f0f:	e8 11 f6 ff ff       	call   1525 <pop>
    1f14:	48 89 05 2d 31 00 00 	mov    %rax,0x312d(%rip)        # 5048 <func_begin_time>
/home/feng/ecnu/ecnu-wys/timerSelf/libprobe/src/../utility/rbtree.h:264
    1f1b:	b8 00 00 00 00       	mov    $0x0,%eax
    1f20:	e8 cc f6 ff ff       	call   15f1 <perf_counter>
    1f25:	48 89 05 2c 31 00 00 	mov    %rax,0x312c(%rip)        # 5058 <oc>
/home/feng/ecnu/ecnu-wys/timerSelf/libprobe/src/../utility/rbtree.h:265
    1f2c:	48 8b 45 f8          	mov    -0x8(%rbp),%rax
    1f30:	48 8b 50 18          	mov    0x18(%rax),%rdx
    1f34:	48 8b 05 1d 31 00 00 	mov    0x311d(%rip),%rax        # 5058 <oc>
    1f3b:	48 8b 0d 06 31 00 00 	mov    0x3106(%rip),%rcx        # 5048 <func_begin_time>
    1f42:	48 29 c8             	sub    %rcx,%rax
    1f45:	48 01 c2             	add    %rax,%rdx
    1f48:	48 8b 45 f8          	mov    -0x8(%rbp),%rax
    1f4c:	48 89 50 18          	mov    %rdx,0x18(%rax)
/home/feng/ecnu/ecnu-wys/timerSelf/libprobe/src/../utility/rbtree.h:269
    1f50:	b8 01 00 00 00       	mov    $0x1,%eax
    1f55:	eb 0a                	jmp    1f61 <search+0x133>
/home/feng/ecnu/ecnu-wys/timerSelf/libprobe/src/../utility/rbtree.h:273
    1f57:	b8 00 00 00 00       	mov    $0x0,%eax
    1f5c:	eb 03                	jmp    1f61 <search+0x133>
/home/feng/ecnu/ecnu-wys/timerSelf/libprobe/src/../utility/rbtree.h:281
    1f5e:	8b 45 f0             	mov    -0x10(%rbp),%eax
/home/feng/ecnu/ecnu-wys/timerSelf/libprobe/src/../utility/rbtree.h:282
    1f61:	c9                   	leave  
    1f62:	c3                   	ret    

0000000000001f63 <timesStamp>:
timesStamp():
/home/feng/ecnu/ecnu-wys/timerSelf/libprobe/src/../utility/get_date.h:12
    1f63:	f3 0f 1e fa          	endbr64 
    1f67:	55                   	push   %rbp
    1f68:	48 89 e5             	mov    %rsp,%rbp
    1f6b:	48 83 ec 20          	sub    $0x20,%rsp
    1f6f:	64 48 8b 04 25 28 00 	mov    %fs:0x28,%rax
    1f76:	00 00 
    1f78:	48 89 45 f8          	mov    %rax,-0x8(%rbp)
    1f7c:	31 c0                	xor    %eax,%eax
/home/feng/ecnu/ecnu-wys/timerSelf/libprobe/src/../utility/get_date.h:13
    1f7e:	bf 00 00 00 00       	mov    $0x0,%edi
    1f83:	e8 08 f3 ff ff       	call   1290 <time@plt>
    1f88:	48 89 45 e8          	mov    %rax,-0x18(%rbp)
/home/feng/ecnu/ecnu-wys/timerSelf/libprobe/src/../utility/get_date.h:14
    1f8c:	48 8d 45 e8          	lea    -0x18(%rbp),%rax
    1f90:	48 89 c7             	mov    %rax,%rdi
    1f93:	e8 d8 f2 ff ff       	call   1270 <localtime@plt>
    1f98:	48 89 45 f0          	mov    %rax,-0x10(%rbp)
/home/feng/ecnu/ecnu-wys/timerSelf/libprobe/src/../utility/get_date.h:15
    1f9c:	ba 20 00 00 00       	mov    $0x20,%edx
    1fa1:	be 00 00 00 00       	mov    $0x0,%esi
    1fa6:	48 8d 05 b3 30 00 00 	lea    0x30b3(%rip),%rax        # 5060 <timestamp>
    1fad:	48 89 c7             	mov    %rax,%rdi
    1fb0:	e8 cb f1 ff ff       	call   1180 <memset@plt>
/home/feng/ecnu/ecnu-wys/timerSelf/libprobe/src/../utility/get_date.h:16
    1fb5:	48 8b 45 f0          	mov    -0x10(%rbp),%rax
    1fb9:	48 89 c1             	mov    %rax,%rcx
    1fbc:	48 8d 05 9e 10 00 00 	lea    0x109e(%rip),%rax        # 3061 <_IO_stdin_used+0x61>
    1fc3:	48 89 c2             	mov    %rax,%rdx
    1fc6:	be 20 00 00 00       	mov    $0x20,%esi
    1fcb:	48 8d 05 8e 30 00 00 	lea    0x308e(%rip),%rax        # 5060 <timestamp>
    1fd2:	48 89 c7             	mov    %rax,%rdi
    1fd5:	e8 a6 f2 ff ff       	call   1280 <strftime@plt>
/home/feng/ecnu/ecnu-wys/timerSelf/libprobe/src/../utility/get_date.h:17
    1fda:	48 8d 05 7f 30 00 00 	lea    0x307f(%rip),%rax        # 5060 <timestamp>
/home/feng/ecnu/ecnu-wys/timerSelf/libprobe/src/../utility/get_date.h:18
    1fe1:	48 8b 55 f8          	mov    -0x8(%rbp),%rdx
    1fe5:	64 48 2b 14 25 28 00 	sub    %fs:0x28,%rdx
    1fec:	00 00 
    1fee:	74 05                	je     1ff5 <timesStamp+0x92>
    1ff0:	e8 3b f2 ff ff       	call   1230 <__stack_chk_fail@plt>
    1ff5:	c9                   	leave  
    1ff6:	c3                   	ret    

0000000000001ff7 <myitoa>:
myitoa():
/home/feng/ecnu/ecnu-wys/timerSelf/libprobe/src/timer.c:48
    1ff7:	f3 0f 1e fa          	endbr64 
    1ffb:	55                   	push   %rbp
    1ffc:	48 89 e5             	mov    %rsp,%rbp
    1fff:	89 7d dc             	mov    %edi,-0x24(%rbp)
    2002:	48 89 75 d0          	mov    %rsi,-0x30(%rbp)
/home/feng/ecnu/ecnu-wys/timerSelf/libprobe/src/timer.c:50
    2006:	c7 45 f8 00 00 00 00 	movl   $0x0,-0x8(%rbp)
/home/feng/ecnu/ecnu-wys/timerSelf/libprobe/src/timer.c:51
    200d:	8b 45 dc             	mov    -0x24(%rbp),%eax
    2010:	89 45 fc             	mov    %eax,-0x4(%rbp)
    2013:	83 7d fc 00          	cmpl   $0x0,-0x4(%rbp)
    2017:	79 03                	jns    201c <myitoa+0x25>
/home/feng/ecnu/ecnu-wys/timerSelf/libprobe/src/timer.c:52
    2019:	f7 5d dc             	negl   -0x24(%rbp)
/home/feng/ecnu/ecnu-wys/timerSelf/libprobe/src/timer.c:53
    201c:	c7 45 f0 00 00 00 00 	movl   $0x0,-0x10(%rbp)
/home/feng/ecnu/ecnu-wys/timerSelf/libprobe/src/timer.c:55 (discriminator 1)
    2023:	8b 55 dc             	mov    -0x24(%rbp),%edx
    2026:	48 63 c2             	movslq %edx,%rax
    2029:	48 69 c0 67 66 66 66 	imul   $0x66666667,%rax,%rax
    2030:	48 c1 e8 20          	shr    $0x20,%rax
    2034:	c1 f8 02             	sar    $0x2,%eax
    2037:	89 d6                	mov    %edx,%esi
    2039:	c1 fe 1f             	sar    $0x1f,%esi
    203c:	29 f0                	sub    %esi,%eax
    203e:	89 c1                	mov    %eax,%ecx
    2040:	89 c8                	mov    %ecx,%eax
    2042:	c1 e0 02             	shl    $0x2,%eax
    2045:	01 c8                	add    %ecx,%eax
    2047:	01 c0                	add    %eax,%eax
    2049:	89 d1                	mov    %edx,%ecx
    204b:	29 c1                	sub    %eax,%ecx
    204d:	89 c8                	mov    %ecx,%eax
    204f:	8d 48 30             	lea    0x30(%rax),%ecx
    2052:	8b 45 f0             	mov    -0x10(%rbp),%eax
    2055:	8d 50 01             	lea    0x1(%rax),%edx
    2058:	89 55 f0             	mov    %edx,-0x10(%rbp)
    205b:	48 63 d0             	movslq %eax,%rdx
    205e:	48 8b 45 d0          	mov    -0x30(%rbp),%rax
    2062:	48 01 d0             	add    %rdx,%rax
    2065:	89 ca                	mov    %ecx,%edx
    2067:	88 10                	mov    %dl,(%rax)
/home/feng/ecnu/ecnu-wys/timerSelf/libprobe/src/timer.c:56 (discriminator 1)
    2069:	83 45 f8 01          	addl   $0x1,-0x8(%rbp)
/home/feng/ecnu/ecnu-wys/timerSelf/libprobe/src/timer.c:57 (discriminator 1)
    206d:	8b 45 dc             	mov    -0x24(%rbp),%eax
    2070:	48 63 d0             	movslq %eax,%rdx
    2073:	48 69 d2 67 66 66 66 	imul   $0x66666667,%rdx,%rdx
    207a:	48 c1 ea 20          	shr    $0x20,%rdx
    207e:	c1 fa 02             	sar    $0x2,%edx
    2081:	c1 f8 1f             	sar    $0x1f,%eax
    2084:	89 c1                	mov    %eax,%ecx
    2086:	89 d0                	mov    %edx,%eax
    2088:	29 c8                	sub    %ecx,%eax
    208a:	89 45 dc             	mov    %eax,-0x24(%rbp)
    208d:	83 7d dc 00          	cmpl   $0x0,-0x24(%rbp)
    2091:	7f 90                	jg     2023 <myitoa+0x2c>
/home/feng/ecnu/ecnu-wys/timerSelf/libprobe/src/timer.c:58
    2093:	83 7d fc 00          	cmpl   $0x0,-0x4(%rbp)
    2097:	79 16                	jns    20af <myitoa+0xb8>
/home/feng/ecnu/ecnu-wys/timerSelf/libprobe/src/timer.c:59
    2099:	8b 45 f0             	mov    -0x10(%rbp),%eax
    209c:	8d 50 01             	lea    0x1(%rax),%edx
    209f:	89 55 f0             	mov    %edx,-0x10(%rbp)
    20a2:	48 63 d0             	movslq %eax,%rdx
    20a5:	48 8b 45 d0          	mov    -0x30(%rbp),%rax
    20a9:	48 01 d0             	add    %rdx,%rax
    20ac:	c6 00 2d             	movb   $0x2d,(%rax)
/home/feng/ecnu/ecnu-wys/timerSelf/libprobe/src/timer.c:60
    20af:	c7 45 f4 00 00 00 00 	movl   $0x0,-0xc(%rbp)
    20b6:	eb 55                	jmp    210d <myitoa+0x116>
/home/feng/ecnu/ecnu-wys/timerSelf/libprobe/src/timer.c:63 (discriminator 3)
    20b8:	8b 45 f4             	mov    -0xc(%rbp),%eax
    20bb:	48 63 d0             	movslq %eax,%rdx
    20be:	48 8b 45 d0          	mov    -0x30(%rbp),%rax
    20c2:	48 01 d0             	add    %rdx,%rax
    20c5:	0f b6 00             	movzbl (%rax),%eax
    20c8:	88 45 ef             	mov    %al,-0x11(%rbp)
/home/feng/ecnu/ecnu-wys/timerSelf/libprobe/src/timer.c:64 (discriminator 3)
    20cb:	8b 45 f8             	mov    -0x8(%rbp),%eax
    20ce:	2b 45 f4             	sub    -0xc(%rbp),%eax
    20d1:	48 98                	cltq   
    20d3:	48 8d 50 ff          	lea    -0x1(%rax),%rdx
    20d7:	48 8b 45 d0          	mov    -0x30(%rbp),%rax
    20db:	48 01 d0             	add    %rdx,%rax
    20de:	8b 55 f4             	mov    -0xc(%rbp),%edx
    20e1:	48 63 ca             	movslq %edx,%rcx
    20e4:	48 8b 55 d0          	mov    -0x30(%rbp),%rdx
    20e8:	48 01 ca             	add    %rcx,%rdx
    20eb:	0f b6 00             	movzbl (%rax),%eax
    20ee:	88 02                	mov    %al,(%rdx)
/home/feng/ecnu/ecnu-wys/timerSelf/libprobe/src/timer.c:65 (discriminator 3)
    20f0:	8b 45 f8             	mov    -0x8(%rbp),%eax
    20f3:	2b 45 f4             	sub    -0xc(%rbp),%eax
    20f6:	48 98                	cltq   
    20f8:	48 8d 50 ff          	lea    -0x1(%rax),%rdx
    20fc:	48 8b 45 d0          	mov    -0x30(%rbp),%rax
    2100:	48 01 c2             	add    %rax,%rdx
    2103:	0f b6 45 ef          	movzbl -0x11(%rbp),%eax
    2107:	88 02                	mov    %al,(%rdx)
/home/feng/ecnu/ecnu-wys/timerSelf/libprobe/src/timer.c:60 (discriminator 3)
    2109:	83 45 f4 01          	addl   $0x1,-0xc(%rbp)
/home/feng/ecnu/ecnu-wys/timerSelf/libprobe/src/timer.c:60 (discriminator 1)
    210d:	8b 45 f8             	mov    -0x8(%rbp),%eax
    2110:	89 c2                	mov    %eax,%edx
    2112:	c1 ea 1f             	shr    $0x1f,%edx
    2115:	01 d0                	add    %edx,%eax
    2117:	d1 f8                	sar    %eax
    2119:	39 45 f4             	cmp    %eax,-0xc(%rbp)
    211c:	7c 9a                	jl     20b8 <myitoa+0xc1>
/home/feng/ecnu/ecnu-wys/timerSelf/libprobe/src/timer.c:67
    211e:	8b 45 f0             	mov    -0x10(%rbp),%eax
    2121:	48 63 d0             	movslq %eax,%rdx
    2124:	48 8b 45 d0          	mov    -0x30(%rbp),%rax
    2128:	48 01 d0             	add    %rdx,%rax
    212b:	c6 00 00             	movb   $0x0,(%rax)
/home/feng/ecnu/ecnu-wys/timerSelf/libprobe/src/timer.c:68
    212e:	48 8b 45 d0          	mov    -0x30(%rbp),%rax
/home/feng/ecnu/ecnu-wys/timerSelf/libprobe/src/timer.c:69
    2132:	5d                   	pop    %rbp
    2133:	c3                   	ret    

0000000000002134 <__profile__initialize_table>:
__profile__initialize_table():
/home/feng/ecnu/ecnu-wys/timerSelf/libprobe/src/timer.c:73
    2134:	f3 0f 1e fa          	endbr64 
    2138:	55                   	push   %rbp
    2139:	48 89 e5             	mov    %rsp,%rbp
/home/feng/ecnu/ecnu-wys/timerSelf/libprobe/src/timer.c:96
    213c:	90                   	nop
    213d:	5d                   	pop    %rbp
    213e:	c3                   	ret    

000000000000213f <__profile__record_time_begin>:
__profile__record_time_begin():
/home/feng/ecnu/ecnu-wys/timerSelf/libprobe/src/timer.c:101
    213f:	f3 0f 1e fa          	endbr64 
    2143:	55                   	push   %rbp
    2144:	48 89 e5             	mov    %rsp,%rbp
    2147:	48 83 ec 10          	sub    $0x10,%rsp
/home/feng/ecnu/ecnu-wys/timerSelf/libprobe/src/timer.c:102
    214b:	8b 15 33 2f 00 00    	mov    0x2f33(%rip),%edx        # 5084 <__profile__faFuncID>
    2151:	8b 05 29 2f 00 00    	mov    0x2f29(%rip),%eax        # 5080 <__profile__funcID>
    2157:	89 c6                	mov    %eax,%esi
    2159:	48 8d 05 18 0f 00 00 	lea    0xf18(%rip),%rax        # 3078 <_IO_stdin_used+0x78>
    2160:	48 89 c7             	mov    %rax,%rdi
    2163:	b8 00 00 00 00       	mov    $0x0,%eax
    2168:	e8 03 f0 ff ff       	call   1170 <printf@plt>
/home/feng/ecnu/ecnu-wys/timerSelf/libprobe/src/timer.c:104
    216d:	b8 00 00 00 00       	mov    $0x0,%eax
    2172:	e8 7a f4 ff ff       	call   15f1 <perf_counter>
    2177:	48 89 05 d2 2e 00 00 	mov    %rax,0x2ed2(%rip)        # 5050 <ic>
/home/feng/ecnu/ecnu-wys/timerSelf/libprobe/src/timer.c:107
    217e:	48 8d 05 3b e3 c4 04 	lea    0x4c4e33b(%rip),%rax        # 4c504c0 <__profile__shell_time>
    2185:	8b 80 00 b4 c4 04    	mov    0x4c4b400(%rax),%eax
    218b:	48 98                	cltq   
    218d:	48 8d 14 c5 00 00 00 	lea    0x0(,%rax,8),%rdx
    2194:	00 
    2195:	48 8d 05 24 e3 c4 04 	lea    0x4c4e324(%rip),%rax        # 4c504c0 <__profile__shell_time>
    219c:	48 8b 04 02          	mov    (%rdx,%rax,1),%rax
    21a0:	48 83 f8 ff          	cmp    $0xffffffffffffffff,%rax
    21a4:	74 52                	je     21f8 <__profile__record_time_begin+0xb9>
/home/feng/ecnu/ecnu-wys/timerSelf/libprobe/src/timer.c:107 (discriminator 1)
    21a6:	48 8d 05 13 e3 c4 04 	lea    0x4c4e313(%rip),%rax        # 4c504c0 <__profile__shell_time>
    21ad:	8b 80 00 b4 c4 04    	mov    0x4c4b400(%rax),%eax
    21b3:	85 c0                	test   %eax,%eax
    21b5:	75 41                	jne    21f8 <__profile__record_time_begin+0xb9>
/home/feng/ecnu/ecnu-wys/timerSelf/libprobe/src/timer.c:110
    21b7:	48 8d 05 02 e3 c4 04 	lea    0x4c4e302(%rip),%rax        # 4c504c0 <__profile__shell_time>
    21be:	48 89 c7             	mov    %rax,%rdi
    21c1:	e8 cc f2 ff ff       	call   1492 <init_stack>
/home/feng/ecnu/ecnu-wys/timerSelf/libprobe/src/timer.c:112
    21c6:	c7 45 fc 00 00 00 00 	movl   $0x0,-0x4(%rbp)
    21cd:	eb 20                	jmp    21ef <__profile__record_time_begin+0xb0>
/home/feng/ecnu/ecnu-wys/timerSelf/libprobe/src/timer.c:114 (discriminator 3)
    21cf:	8b 45 fc             	mov    -0x4(%rbp),%eax
    21d2:	48 98                	cltq   
    21d4:	48 8d 14 c5 00 00 00 	lea    0x0(,%rax,8),%rdx
    21db:	00 
    21dc:	48 8d 05 5d 97 89 09 	lea    0x989975d(%rip),%rax        # 989b940 <T>
    21e3:	48 c7 04 02 00 00 00 	movq   $0x0,(%rdx,%rax,1)
    21ea:	00 
/home/feng/ecnu/ecnu-wys/timerSelf/libprobe/src/timer.c:112 (discriminator 3)
    21eb:	83 45 fc 01          	addl   $0x1,-0x4(%rbp)
/home/feng/ecnu/ecnu-wys/timerSelf/libprobe/src/timer.c:112 (discriminator 1)
    21ef:	81 7d fc 27 23 00 00 	cmpl   $0x2327,-0x4(%rbp)
    21f6:	7e d7                	jle    21cf <__profile__record_time_begin+0x90>
/home/feng/ecnu/ecnu-wys/timerSelf/libprobe/src/timer.c:117
    21f8:	48 8d 05 a1 2e 00 00 	lea    0x2ea1(%rip),%rax        # 50a0 <__profile__S>
    21ff:	8b 80 00 b4 c4 04    	mov    0x4c4b400(%rax),%eax
    2205:	48 98                	cltq   
    2207:	48 8d 14 c5 00 00 00 	lea    0x0(,%rax,8),%rdx
    220e:	00 
    220f:	48 8d 05 8a 2e 00 00 	lea    0x2e8a(%rip),%rax        # 50a0 <__profile__S>
    2216:	48 8b 04 02          	mov    (%rdx,%rax,1),%rax
    221a:	48 83 f8 ff          	cmp    $0xffffffffffffffff,%rax
    221e:	74 20                	je     2240 <__profile__record_time_begin+0x101>
/home/feng/ecnu/ecnu-wys/timerSelf/libprobe/src/timer.c:117 (discriminator 1)
    2220:	48 8d 05 79 2e 00 00 	lea    0x2e79(%rip),%rax        # 50a0 <__profile__S>
    2227:	8b 80 00 b4 c4 04    	mov    0x4c4b400(%rax),%eax
    222d:	85 c0                	test   %eax,%eax
    222f:	75 0f                	jne    2240 <__profile__record_time_begin+0x101>
/home/feng/ecnu/ecnu-wys/timerSelf/libprobe/src/timer.c:118
    2231:	48 8d 05 68 2e 00 00 	lea    0x2e68(%rip),%rax        # 50a0 <__profile__S>
    2238:	48 89 c7             	mov    %rax,%rdi
    223b:	e8 52 f2 ff ff       	call   1492 <init_stack>
/home/feng/ecnu/ecnu-wys/timerSelf/libprobe/src/timer.c:120
    2240:	48 8d 05 59 2e 00 00 	lea    0x2e59(%rip),%rax        # 50a0 <__profile__S>
    2247:	8b 80 00 b4 c4 04    	mov    0x4c4b400(%rax),%eax
    224d:	85 c0                	test   %eax,%eax
    224f:	7e 15                	jle    2266 <__profile__record_time_begin+0x127>
/home/feng/ecnu/ecnu-wys/timerSelf/libprobe/src/timer.c:120 (discriminator 1)
    2251:	48 8d 05 48 2e 00 00 	lea    0x2e48(%rip),%rax        # 50a0 <__profile__S>
    2258:	48 89 c7             	mov    %rax,%rdi
    225b:	e8 37 f3 ff ff       	call   1597 <top>
    2260:	89 05 aa 2d 00 00    	mov    %eax,0x2daa(%rip)        # 5010 <__profile__fatherID>
/home/feng/ecnu/ecnu-wys/timerSelf/libprobe/src/timer.c:121
    2266:	8b 05 14 2e 00 00    	mov    0x2e14(%rip),%eax        # 5080 <__profile__funcID>
    226c:	48 98                	cltq   
    226e:	48 89 c6             	mov    %rax,%rsi
    2271:	48 8d 05 28 2e 00 00 	lea    0x2e28(%rip),%rax        # 50a0 <__profile__S>
    2278:	48 89 c7             	mov    %rax,%rdi
    227b:	e8 62 f2 ff ff       	call   14e2 <push>
/home/feng/ecnu/ecnu-wys/timerSelf/libprobe/src/timer.c:122
    2280:	48 8b 05 c9 2d 00 00 	mov    0x2dc9(%rip),%rax        # 5050 <ic>
    2287:	48 89 c6             	mov    %rax,%rsi
    228a:	48 8d 05 2f e2 c4 04 	lea    0x4c4e22f(%rip),%rax        # 4c504c0 <__profile__shell_time>
    2291:	48 89 c7             	mov    %rax,%rdi
    2294:	e8 49 f2 ff ff       	call   14e2 <push>
/home/feng/ecnu/ecnu-wys/timerSelf/libprobe/src/timer.c:125
    2299:	b8 00 00 00 00       	mov    $0x0,%eax
    229e:	e8 4e f3 ff ff       	call   15f1 <perf_counter>
    22a3:	48 89 05 ae 2d 00 00 	mov    %rax,0x2dae(%rip)        # 5058 <oc>
/home/feng/ecnu/ecnu-wys/timerSelf/libprobe/src/timer.c:126
    22aa:	48 8b 05 a7 2d 00 00 	mov    0x2da7(%rip),%rax        # 5058 <oc>
    22b1:	48 89 c6             	mov    %rax,%rsi
    22b4:	48 8d 05 05 e2 c4 04 	lea    0x4c4e205(%rip),%rax        # 4c504c0 <__profile__shell_time>
    22bb:	48 89 c7             	mov    %rax,%rdi
    22be:	e8 1f f2 ff ff       	call   14e2 <push>
/home/feng/ecnu/ecnu-wys/timerSelf/libprobe/src/timer.c:127
    22c3:	90                   	nop
    22c4:	c9                   	leave  
    22c5:	c3                   	ret    

00000000000022c6 <__profile__record_time_end>:
__profile__record_time_end():
/home/feng/ecnu/ecnu-wys/timerSelf/libprobe/src/timer.c:132
    22c6:	f3 0f 1e fa          	endbr64 
    22ca:	55                   	push   %rbp
    22cb:	48 89 e5             	mov    %rsp,%rbp
    22ce:	48 83 ec 30          	sub    $0x30,%rsp
/home/feng/ecnu/ecnu-wys/timerSelf/libprobe/src/timer.c:140
    22d2:	48 8d 05 e7 e1 c4 04 	lea    0x4c4e1e7(%rip),%rax        # 4c504c0 <__profile__shell_time>
    22d9:	48 89 c7             	mov    %rax,%rdi
    22dc:	e8 44 f2 ff ff       	call   1525 <pop>
    22e1:	48 89 45 d8          	mov    %rax,-0x28(%rbp)
/home/feng/ecnu/ecnu-wys/timerSelf/libprobe/src/timer.c:142
    22e5:	48 8d 05 b4 2d 00 00 	lea    0x2db4(%rip),%rax        # 50a0 <__profile__S>
    22ec:	8b 80 00 b4 c4 04    	mov    0x4c4b400(%rax),%eax
    22f2:	85 c0                	test   %eax,%eax
    22f4:	7e 0f                	jle    2305 <__profile__record_time_end+0x3f>
/home/feng/ecnu/ecnu-wys/timerSelf/libprobe/src/timer.c:142 (discriminator 1)
    22f6:	48 8d 05 a3 2d 00 00 	lea    0x2da3(%rip),%rax        # 50a0 <__profile__S>
    22fd:	48 89 c7             	mov    %rax,%rdi
    2300:	e8 20 f2 ff ff       	call   1525 <pop>
/home/feng/ecnu/ecnu-wys/timerSelf/libprobe/src/timer.c:143
    2305:	48 8d 05 94 2d 00 00 	lea    0x2d94(%rip),%rax        # 50a0 <__profile__S>
    230c:	8b 80 00 b4 c4 04    	mov    0x4c4b400(%rax),%eax
    2312:	85 c0                	test   %eax,%eax
    2314:	7e 15                	jle    232b <__profile__record_time_end+0x65>
/home/feng/ecnu/ecnu-wys/timerSelf/libprobe/src/timer.c:143 (discriminator 1)
    2316:	48 8d 05 83 2d 00 00 	lea    0x2d83(%rip),%rax        # 50a0 <__profile__S>
    231d:	48 89 c7             	mov    %rax,%rdi
    2320:	e8 72 f2 ff ff       	call   1597 <top>
    2325:	89 05 e5 2c 00 00    	mov    %eax,0x2ce5(%rip)        # 5010 <__profile__fatherID>
/home/feng/ecnu/ecnu-wys/timerSelf/libprobe/src/timer.c:146
    232b:	8b 35 df 2c 00 00    	mov    0x2cdf(%rip),%esi        # 5010 <__profile__fatherID>
    2331:	8b 05 49 2d 00 00    	mov    0x2d49(%rip),%eax        # 5080 <__profile__funcID>
    2337:	48 98                	cltq   
    2339:	48 8d 14 c5 00 00 00 	lea    0x0(,%rax,8),%rdx
    2340:	00 
    2341:	48 8d 05 f8 95 89 09 	lea    0x98995f8(%rip),%rax        # 989b940 <T>
    2348:	48 8b 04 02          	mov    (%rdx,%rax,1),%rax
    234c:	48 8b 55 d8          	mov    -0x28(%rbp),%rdx
    2350:	48 89 d1             	mov    %rdx,%rcx
    2353:	ba 00 00 00 00       	mov    $0x0,%edx
    2358:	48 89 c7             	mov    %rax,%rdi
    235b:	e8 ce fa ff ff       	call   1e2e <search>
    2360:	89 45 d4             	mov    %eax,-0x2c(%rbp)
/home/feng/ecnu/ecnu-wys/timerSelf/libprobe/src/timer.c:147
    2363:	83 7d d4 00          	cmpl   $0x0,-0x2c(%rbp)
    2367:	0f 85 9f 00 00 00    	jne    240c <__profile__record_time_end+0x146>
/home/feng/ecnu/ecnu-wys/timerSelf/libprobe/src/timer.c:151
    236d:	8b 05 9d 2c 00 00    	mov    0x2c9d(%rip),%eax        # 5010 <__profile__fatherID>
    2373:	89 45 e0             	mov    %eax,-0x20(%rbp)
/home/feng/ecnu/ecnu-wys/timerSelf/libprobe/src/timer.c:152
    2376:	48 c7 45 f0 01 00 00 	movq   $0x1,-0x10(%rbp)
    237d:	00 
/home/feng/ecnu/ecnu-wys/timerSelf/libprobe/src/timer.c:153
    237e:	b8 00 00 00 00       	mov    $0x0,%eax
    2383:	e8 69 f2 ff ff       	call   15f1 <perf_counter>
    2388:	48 89 05 c1 2c 00 00 	mov    %rax,0x2cc1(%rip)        # 5050 <ic>
/home/feng/ecnu/ecnu-wys/timerSelf/libprobe/src/timer.c:154
    238f:	48 8b 05 ba 2c 00 00 	mov    0x2cba(%rip),%rax        # 5050 <ic>
    2396:	48 2b 45 d8          	sub    -0x28(%rbp),%rax
    239a:	48 89 45 e8          	mov    %rax,-0x18(%rbp)
/home/feng/ecnu/ecnu-wys/timerSelf/libprobe/src/timer.c:156
    239e:	48 8d 05 1b e1 c4 04 	lea    0x4c4e11b(%rip),%rax        # 4c504c0 <__profile__shell_time>
    23a5:	48 89 c7             	mov    %rax,%rdi
    23a8:	e8 78 f1 ff ff       	call   1525 <pop>
    23ad:	48 89 05 94 2c 00 00 	mov    %rax,0x2c94(%rip)        # 5048 <func_begin_time>
/home/feng/ecnu/ecnu-wys/timerSelf/libprobe/src/timer.c:157
    23b4:	b8 00 00 00 00       	mov    $0x0,%eax
    23b9:	e8 33 f2 ff ff       	call   15f1 <perf_counter>
    23be:	48 89 05 93 2c 00 00 	mov    %rax,0x2c93(%rip)        # 5058 <oc>
/home/feng/ecnu/ecnu-wys/timerSelf/libprobe/src/timer.c:158
    23c5:	48 8b 05 8c 2c 00 00 	mov    0x2c8c(%rip),%rax        # 5058 <oc>
    23cc:	48 8b 15 75 2c 00 00 	mov    0x2c75(%rip),%rdx        # 5048 <func_begin_time>
    23d3:	48 29 d0             	sub    %rdx,%rax
    23d6:	48 89 45 f8          	mov    %rax,-0x8(%rbp)
/home/feng/ecnu/ecnu-wys/timerSelf/libprobe/src/timer.c:159
    23da:	8b 05 a0 2c 00 00    	mov    0x2ca0(%rip),%eax        # 5080 <__profile__funcID>
    23e0:	48 98                	cltq   
    23e2:	48 8d 14 c5 00 00 00 	lea    0x0(,%rax,8),%rdx
    23e9:	00 
    23ea:	48 8d 05 4f 95 89 09 	lea    0x989954f(%rip),%rax        # 989b940 <T>
    23f1:	48 01 d0             	add    %rdx,%rax
    23f4:	ff 75 f8             	push   -0x8(%rbp)
    23f7:	ff 75 f0             	push   -0x10(%rbp)
    23fa:	ff 75 e8             	push   -0x18(%rbp)
    23fd:	ff 75 e0             	push   -0x20(%rbp)
    2400:	48 89 c7             	mov    %rax,%rdi
    2403:	e8 a5 f7 ff ff       	call   1bad <insert>
    2408:	48 83 c4 20          	add    $0x20,%rsp
/home/feng/ecnu/ecnu-wys/timerSelf/libprobe/src/timer.c:162
    240c:	48 8d 05 ad e0 c4 04 	lea    0x4c4e0ad(%rip),%rax        # 4c504c0 <__profile__shell_time>
    2413:	8b 80 00 b4 c4 04    	mov    0x4c4b400(%rax),%eax
    2419:	83 f8 01             	cmp    $0x1,%eax
    241c:	75 32                	jne    2450 <__profile__record_time_end+0x18a>
/home/feng/ecnu/ecnu-wys/timerSelf/libprobe/src/timer.c:163
    241e:	48 8d 05 a3 94 89 09 	lea    0x98994a3(%rip),%rax        # 989b8c8 <__profile_common_size>
    2425:	48 89 c6             	mov    %rax,%rsi
    2428:	bf 00 00 00 44       	mov    $0x44000000,%edi
    242d:	e8 ce ed ff ff       	call   1200 <MPI_Comm_size@plt>
/home/feng/ecnu/ecnu-wys/timerSelf/libprobe/src/timer.c:164
    2432:	48 8d 05 db 2b 00 00 	lea    0x2bdb(%rip),%rax        # 5014 <__profile__rank>
    2439:	48 89 c6             	mov    %rax,%rsi
    243c:	bf 00 00 00 44       	mov    $0x44000000,%edi
    2441:	e8 da ed ff ff       	call   1220 <MPI_Comm_rank@plt>
/home/feng/ecnu/ecnu-wys/timerSelf/libprobe/src/timer.c:166
    2446:	b8 00 00 00 00       	mov    $0x0,%eax
    244b:	e8 03 00 00 00       	call   2453 <__profile__input_csv>
/home/feng/ecnu/ecnu-wys/timerSelf/libprobe/src/timer.c:168
    2450:	90                   	nop
    2451:	c9                   	leave  
    2452:	c3                   	ret    

0000000000002453 <__profile__input_csv>:
__profile__input_csv():
/home/feng/ecnu/ecnu-wys/timerSelf/libprobe/src/timer.c:173
    2453:	f3 0f 1e fa          	endbr64 
    2457:	55                   	push   %rbp
    2458:	48 89 e5             	mov    %rsp,%rbp
    245b:	48 81 ec 30 04 00 00 	sub    $0x430,%rsp
    2462:	64 48 8b 04 25 28 00 	mov    %fs:0x28,%rax
    2469:	00 00 
    246b:	48 89 45 f8          	mov    %rax,-0x8(%rbp)
    246f:	31 c0                	xor    %eax,%eax
/home/feng/ecnu/ecnu-wys/timerSelf/libprobe/src/timer.c:178
    2471:	48 c7 85 f0 fb ff ff 	movq   $0x2f2e,-0x410(%rbp)
    2478:	2e 2f 00 00 
    247c:	48 c7 85 f8 fb ff ff 	movq   $0x0,-0x408(%rbp)
    2483:	00 00 00 00 
    2487:	48 8d 95 00 fc ff ff 	lea    -0x400(%rbp),%rdx
    248e:	b8 00 00 00 00       	mov    $0x0,%eax
    2493:	b9 7e 00 00 00       	mov    $0x7e,%ecx
    2498:	48 89 d7             	mov    %rdx,%rdi
    249b:	f3 48 ab             	rep stos %rax,%es:(%rdi)
/home/feng/ecnu/ecnu-wys/timerSelf/libprobe/src/timer.c:179
    249e:	8b 05 70 2b 00 00    	mov    0x2b70(%rip),%eax        # 5014 <__profile__rank>
    24a4:	8d 50 01             	lea    0x1(%rax),%edx
    24a7:	48 8d 85 e6 fb ff ff 	lea    -0x41a(%rbp),%rax
    24ae:	48 89 c6             	mov    %rax,%rsi
    24b1:	89 d7                	mov    %edx,%edi
    24b3:	e8 3f fb ff ff       	call   1ff7 <myitoa>
/home/feng/ecnu/ecnu-wys/timerSelf/libprobe/src/timer.c:180
    24b8:	48 8d 95 e6 fb ff ff 	lea    -0x41a(%rbp),%rdx
    24bf:	48 8d 85 f0 fb ff ff 	lea    -0x410(%rbp),%rax
    24c6:	48 89 d6             	mov    %rdx,%rsi
    24c9:	48 89 c7             	mov    %rax,%rdi
    24cc:	e8 3f ed ff ff       	call   1210 <strcat@plt>
/home/feng/ecnu/ecnu-wys/timerSelf/libprobe/src/timer.c:181
    24d1:	48 8d 85 f0 fb ff ff 	lea    -0x410(%rbp),%rax
    24d8:	48 89 c7             	mov    %rax,%rdi
    24db:	e8 00 ed ff ff       	call   11e0 <strlen@plt>
    24e0:	48 89 c2             	mov    %rax,%rdx
    24e3:	48 8d 85 f0 fb ff ff 	lea    -0x410(%rbp),%rax
    24ea:	48 01 d0             	add    %rdx,%rax
    24ed:	66 c7 00 5f 5f       	movw   $0x5f5f,(%rax)
    24f2:	c6 40 02 00          	movb   $0x0,0x2(%rax)
/home/feng/ecnu/ecnu-wys/timerSelf/libprobe/src/timer.c:182
    24f6:	b8 00 00 00 00       	mov    $0x0,%eax
    24fb:	e8 63 fa ff ff       	call   1f63 <timesStamp>
    2500:	48 89 c2             	mov    %rax,%rdx
    2503:	48 8d 85 f0 fb ff ff 	lea    -0x410(%rbp),%rax
    250a:	48 89 d6             	mov    %rdx,%rsi
    250d:	48 89 c7             	mov    %rax,%rdi
    2510:	e8 fb ec ff ff       	call   1210 <strcat@plt>
/home/feng/ecnu/ecnu-wys/timerSelf/libprobe/src/timer.c:183
    2515:	48 8d 85 f0 fb ff ff 	lea    -0x410(%rbp),%rax
    251c:	48 89 c7             	mov    %rax,%rdi
    251f:	e8 bc ec ff ff       	call   11e0 <strlen@plt>
    2524:	48 89 c2             	mov    %rax,%rdx
    2527:	48 8d 85 f0 fb ff ff 	lea    -0x410(%rbp),%rax
    252e:	48 01 d0             	add    %rdx,%rax
    2531:	c7 00 2e 63 73 76    	movl   $0x7673632e,(%rax)
    2537:	c6 40 04 00          	movb   $0x0,0x4(%rax)
/home/feng/ecnu/ecnu-wys/timerSelf/libprobe/src/timer.c:184
    253b:	48 8d 85 f0 fb ff ff 	lea    -0x410(%rbp),%rax
    2542:	48 89 c7             	mov    %rax,%rdi
    2545:	e8 46 ec ff ff       	call   1190 <puts@plt>
/home/feng/ecnu/ecnu-wys/timerSelf/libprobe/src/timer.c:185
    254a:	48 8d 85 f0 fb ff ff 	lea    -0x410(%rbp),%rax
    2551:	48 8d 15 44 0b 00 00 	lea    0xb44(%rip),%rdx        # 309c <_IO_stdin_used+0x9c>
    2558:	48 89 d6             	mov    %rdx,%rsi
    255b:	48 89 c7             	mov    %rax,%rdi
    255e:	e8 4d ec ff ff       	call   11b0 <fopen@plt>
    2563:	48 89 85 d8 fb ff ff 	mov    %rax,-0x428(%rbp)
/home/feng/ecnu/ecnu-wys/timerSelf/libprobe/src/timer.c:187
    256a:	c7 85 d4 fb ff ff 01 	movl   $0x1,-0x42c(%rbp)
    2571:	00 00 00 
    2574:	eb 5c                	jmp    25d2 <__profile__input_csv+0x17f>
/home/feng/ecnu/ecnu-wys/timerSelf/libprobe/src/timer.c:189
    2576:	8b 85 d4 fb ff ff    	mov    -0x42c(%rbp),%eax
    257c:	48 98                	cltq   
    257e:	48 8d 14 c5 00 00 00 	lea    0x0(,%rax,8),%rdx
    2585:	00 
    2586:	48 8d 05 b3 93 89 09 	lea    0x98993b3(%rip),%rax        # 989b940 <T>
    258d:	48 8b 04 02          	mov    (%rdx,%rax,1),%rax
    2591:	48 85 c0             	test   %rax,%rax
    2594:	74 34                	je     25ca <__profile__input_csv+0x177>
/home/feng/ecnu/ecnu-wys/timerSelf/libprobe/src/timer.c:190
    2596:	8b 85 d4 fb ff ff    	mov    -0x42c(%rbp),%eax
    259c:	48 98                	cltq   
    259e:	48 8d 14 c5 00 00 00 	lea    0x0(,%rax,8),%rdx
    25a5:	00 
    25a6:	48 8d 05 93 93 89 09 	lea    0x9899393(%rip),%rax        # 989b940 <T>
    25ad:	48 8b 04 02          	mov    (%rdx,%rax,1),%rax
    25b1:	48 8b 95 d8 fb ff ff 	mov    -0x428(%rbp),%rdx
    25b8:	8b 8d d4 fb ff ff    	mov    -0x42c(%rbp),%ecx
    25be:	89 ce                	mov    %ecx,%esi
    25c0:	48 89 c7             	mov    %rax,%rdi
    25c3:	e8 18 f7 ff ff       	call   1ce0 <inorder>
    25c8:	eb 01                	jmp    25cb <__profile__input_csv+0x178>
/home/feng/ecnu/ecnu-wys/timerSelf/libprobe/src/timer.c:189
    25ca:	90                   	nop
/home/feng/ecnu/ecnu-wys/timerSelf/libprobe/src/timer.c:187 (discriminator 2)
    25cb:	83 85 d4 fb ff ff 01 	addl   $0x1,-0x42c(%rbp)
/home/feng/ecnu/ecnu-wys/timerSelf/libprobe/src/timer.c:187 (discriminator 1)
    25d2:	81 bd d4 fb ff ff 28 	cmpl   $0x2328,-0x42c(%rbp)
    25d9:	23 00 00 
    25dc:	7e 98                	jle    2576 <__profile__input_csv+0x123>
/home/feng/ecnu/ecnu-wys/timerSelf/libprobe/src/timer.c:192
    25de:	48 8b 85 d8 fb ff ff 	mov    -0x428(%rbp),%rax
    25e5:	48 89 c7             	mov    %rax,%rdi
    25e8:	e8 63 ec ff ff       	call   1250 <fclose@plt>
/home/feng/ecnu/ecnu-wys/timerSelf/libprobe/src/timer.c:193
    25ed:	90                   	nop
    25ee:	48 8b 45 f8          	mov    -0x8(%rbp),%rax
    25f2:	64 48 2b 04 25 28 00 	sub    %fs:0x28,%rax
    25f9:	00 00 
    25fb:	74 05                	je     2602 <__profile__input_csv+0x1af>
    25fd:	e8 2e ec ff ff       	call   1230 <__stack_chk_fail@plt>
    2602:	c9                   	leave  
    2603:	c3                   	ret    

0000000000002604 <getHashId>:
getHashId():
/home/feng/ecnu/ecnu-wys/timerSelf/libprobe/src/timer.c:202
    2604:	f3 0f 1e fa          	endbr64 
    2608:	55                   	push   %rbp
    2609:	48 89 e5             	mov    %rsp,%rbp
    260c:	48 89 7d e8          	mov    %rdi,-0x18(%rbp)
/home/feng/ecnu/ecnu-wys/timerSelf/libprobe/src/timer.c:203
    2610:	48 8b 4d e8          	mov    -0x18(%rbp),%rcx
    2614:	48 ba 37 63 5c 22 b5 	movabs $0x3a4114b5225c6337,%rdx
    261b:	14 41 3a 
    261e:	48 89 c8             	mov    %rcx,%rax
    2621:	48 f7 e2             	mul    %rdx
    2624:	48 89 d0             	mov    %rdx,%rax
    2627:	48 c1 e8 0b          	shr    $0xb,%rax
    262b:	48 69 d0 28 23 00 00 	imul   $0x2328,%rax,%rdx
    2632:	48 89 c8             	mov    %rcx,%rax
    2635:	48 29 d0             	sub    %rdx,%rax
    2638:	89 45 fc             	mov    %eax,-0x4(%rbp)
/home/feng/ecnu/ecnu-wys/timerSelf/libprobe/src/timer.c:205
    263b:	83 7d fc 00          	cmpl   $0x0,-0x4(%rbp)
    263f:	75 76                	jne    26b7 <getHashId+0xb3>
/home/feng/ecnu/ecnu-wys/timerSelf/libprobe/src/timer.c:205 (discriminator 1)
    2641:	83 45 fc 01          	addl   $0x1,-0x4(%rbp)
/home/feng/ecnu/ecnu-wys/timerSelf/libprobe/src/timer.c:206 (discriminator 1)
    2645:	eb 70                	jmp    26b7 <getHashId+0xb3>
/home/feng/ecnu/ecnu-wys/timerSelf/libprobe/src/timer.c:207
    2647:	8b 45 fc             	mov    -0x4(%rbp),%eax
    264a:	48 98                	cltq   
    264c:	48 8d 14 c5 00 00 00 	lea    0x0(,%rax,8),%rdx
    2653:	00 
    2654:	48 8d 05 25 ac 8a 09 	lea    0x98aac25(%rip),%rax        # 98ad280 <addr2int>
    265b:	48 8b 04 02          	mov    (%rdx,%rax,1),%rax
    265f:	48 85 c0             	test   %rax,%rax
    2662:	74 1e                	je     2682 <getHashId+0x7e>
/home/feng/ecnu/ecnu-wys/timerSelf/libprobe/src/timer.c:207 (discriminator 1)
    2664:	8b 45 fc             	mov    -0x4(%rbp),%eax
    2667:	48 98                	cltq   
    2669:	48 8d 14 c5 00 00 00 	lea    0x0(,%rax,8),%rdx
    2670:	00 
    2671:	48 8d 05 08 ac 8a 09 	lea    0x98aac08(%rip),%rax        # 98ad280 <addr2int>
    2678:	48 8b 04 02          	mov    (%rdx,%rax,1),%rax
    267c:	48 39 45 e8          	cmp    %rax,-0x18(%rbp)
    2680:	75 21                	jne    26a3 <getHashId+0x9f>
/home/feng/ecnu/ecnu-wys/timerSelf/libprobe/src/timer.c:208
    2682:	8b 45 fc             	mov    -0x4(%rbp),%eax
    2685:	48 98                	cltq   
    2687:	48 8d 0c c5 00 00 00 	lea    0x0(,%rax,8),%rcx
    268e:	00 
    268f:	48 8d 15 ea ab 8a 09 	lea    0x98aabea(%rip),%rdx        # 98ad280 <addr2int>
    2696:	48 8b 45 e8          	mov    -0x18(%rbp),%rax
    269a:	48 89 04 11          	mov    %rax,(%rcx,%rdx,1)
/home/feng/ecnu/ecnu-wys/timerSelf/libprobe/src/timer.c:209
    269e:	8b 45 fc             	mov    -0x4(%rbp),%eax
    26a1:	eb 39                	jmp    26dc <getHashId+0xd8>
/home/feng/ecnu/ecnu-wys/timerSelf/libprobe/src/timer.c:211
    26a3:	83 45 fc 01          	addl   $0x1,-0x4(%rbp)
/home/feng/ecnu/ecnu-wys/timerSelf/libprobe/src/timer.c:212
    26a7:	81 7d fc 28 23 00 00 	cmpl   $0x2328,-0x4(%rbp)
    26ae:	7e 07                	jle    26b7 <getHashId+0xb3>
/home/feng/ecnu/ecnu-wys/timerSelf/libprobe/src/timer.c:212 (discriminator 1)
    26b0:	c7 45 fc 01 00 00 00 	movl   $0x1,-0x4(%rbp)
/home/feng/ecnu/ecnu-wys/timerSelf/libprobe/src/timer.c:206
    26b7:	8b 45 fc             	mov    -0x4(%rbp),%eax
    26ba:	48 98                	cltq   
    26bc:	48 8d 14 c5 00 00 00 	lea    0x0(,%rax,8),%rdx
    26c3:	00 
    26c4:	48 8d 05 b5 ab 8a 09 	lea    0x98aabb5(%rip),%rax        # 98ad280 <addr2int>
    26cb:	48 8b 04 02          	mov    (%rdx,%rax,1),%rax
    26cf:	48 39 45 e8          	cmp    %rax,-0x18(%rbp)
    26d3:	0f 85 6e ff ff ff    	jne    2647 <getHashId+0x43>
/home/feng/ecnu/ecnu-wys/timerSelf/libprobe/src/timer.c:214
    26d9:	8b 45 fc             	mov    -0x4(%rbp),%eax
/home/feng/ecnu/ecnu-wys/timerSelf/libprobe/src/timer.c:215
    26dc:	5d                   	pop    %rbp
    26dd:	c3                   	ret    

00000000000026de <__cyg_profile_func_enter>:
__cyg_profile_func_enter():
/home/feng/ecnu/ecnu-wys/timerSelf/libprobe/src/timer.c:218
    26de:	f3 0f 1e fa          	endbr64 
    26e2:	55                   	push   %rbp
    26e3:	48 89 e5             	mov    %rsp,%rbp
    26e6:	48 83 ec 20          	sub    $0x20,%rsp
    26ea:	48 89 7d e8          	mov    %rdi,-0x18(%rbp)
    26ee:	48 89 75 e0          	mov    %rsi,-0x20(%rbp)
/home/feng/ecnu/ecnu-wys/timerSelf/libprobe/src/timer.c:219
    26f2:	48 8b 45 e8          	mov    -0x18(%rbp),%rax
    26f6:	48 89 c7             	mov    %rax,%rdi
    26f9:	e8 06 ff ff ff       	call   2604 <getHashId>
    26fe:	89 45 f8             	mov    %eax,-0x8(%rbp)
    2701:	48 8b 45 e0          	mov    -0x20(%rbp),%rax
    2705:	48 89 c7             	mov    %rax,%rdi
    2708:	e8 f7 fe ff ff       	call   2604 <getHashId>
    270d:	89 45 fc             	mov    %eax,-0x4(%rbp)
/home/feng/ecnu/ecnu-wys/timerSelf/libprobe/src/timer.c:221
    2710:	8b 45 f8             	mov    -0x8(%rbp),%eax
    2713:	89 05 67 29 00 00    	mov    %eax,0x2967(%rip)        # 5080 <__profile__funcID>
/home/feng/ecnu/ecnu-wys/timerSelf/libprobe/src/timer.c:222
    2719:	8b 45 fc             	mov    -0x4(%rbp),%eax
    271c:	89 05 ee 28 00 00    	mov    %eax,0x28ee(%rip)        # 5010 <__profile__fatherID>
/home/feng/ecnu/ecnu-wys/timerSelf/libprobe/src/timer.c:223
    2722:	b8 00 00 00 00       	mov    $0x0,%eax
    2727:	e8 13 fa ff ff       	call   213f <__profile__record_time_begin>
/home/feng/ecnu/ecnu-wys/timerSelf/libprobe/src/timer.c:225
    272c:	90                   	nop
    272d:	c9                   	leave  
    272e:	c3                   	ret    

000000000000272f <__cyg_profile_func_exit>:
__cyg_profile_func_exit():
/home/feng/ecnu/ecnu-wys/timerSelf/libprobe/src/timer.c:229
    272f:	f3 0f 1e fa          	endbr64 
    2733:	55                   	push   %rbp
    2734:	48 89 e5             	mov    %rsp,%rbp
    2737:	48 83 ec 20          	sub    $0x20,%rsp
    273b:	48 89 7d e8          	mov    %rdi,-0x18(%rbp)
    273f:	48 89 75 e0          	mov    %rsi,-0x20(%rbp)
/home/feng/ecnu/ecnu-wys/timerSelf/libprobe/src/timer.c:230
    2743:	48 8b 45 e8          	mov    -0x18(%rbp),%rax
    2747:	48 89 c7             	mov    %rax,%rdi
    274a:	e8 b5 fe ff ff       	call   2604 <getHashId>
    274f:	89 45 f8             	mov    %eax,-0x8(%rbp)
    2752:	48 8b 45 e0          	mov    -0x20(%rbp),%rax
    2756:	48 89 c7             	mov    %rax,%rdi
    2759:	e8 a6 fe ff ff       	call   2604 <getHashId>
    275e:	89 45 fc             	mov    %eax,-0x4(%rbp)
/home/feng/ecnu/ecnu-wys/timerSelf/libprobe/src/timer.c:232
    2761:	8b 45 f8             	mov    -0x8(%rbp),%eax
    2764:	89 05 16 29 00 00    	mov    %eax,0x2916(%rip)        # 5080 <__profile__funcID>
/home/feng/ecnu/ecnu-wys/timerSelf/libprobe/src/timer.c:233
    276a:	8b 45 fc             	mov    -0x4(%rbp),%eax
    276d:	89 05 9d 28 00 00    	mov    %eax,0x289d(%rip)        # 5010 <__profile__fatherID>
/home/feng/ecnu/ecnu-wys/timerSelf/libprobe/src/timer.c:234
    2773:	b8 00 00 00 00       	mov    $0x0,%eax
    2778:	e8 49 fb ff ff       	call   22c6 <__profile__record_time_end>
/home/feng/ecnu/ecnu-wys/timerSelf/libprobe/src/timer.c:235
    277d:	90                   	nop
    277e:	c9                   	leave  
    277f:	c3                   	ret    

Disassembly of section .fini:

0000000000002780 <_fini>:
_fini():
    2780:	f3 0f 1e fa          	endbr64 
    2784:	48 83 ec 08          	sub    $0x8,%rsp
    2788:	48 83 c4 08          	add    $0x8,%rsp
    278c:	c3                   	ret    
