
a.out：     文件格式 elf64-x86-64


Disassembly of section .init:

0000000000001000 <_init>:
    1000:	f3 0f 1e fa          	endbr64 
    1004:	48 83 ec 08          	sub    $0x8,%rsp
    1008:	48 8b 05 d9 2f 00 00 	mov    0x2fd9(%rip),%rax        # 3fe8 <__gmon_start__@Base>
    100f:	48 85 c0             	test   %rax,%rax
    1012:	74 02                	je     1016 <_init+0x16>
    1014:	ff d0                	call   *%rax
    1016:	48 83 c4 08          	add    $0x8,%rsp
    101a:	c3                   	ret    

Disassembly of section .plt:

0000000000001020 <.plt>:
    1020:	ff 35 92 2f 00 00    	push   0x2f92(%rip)        # 3fb8 <_GLOBAL_OFFSET_TABLE_+0x8>
    1026:	f2 ff 25 93 2f 00 00 	bnd jmp *0x2f93(%rip)        # 3fc0 <_GLOBAL_OFFSET_TABLE_+0x10>
    102d:	0f 1f 00             	nopl   (%rax)
    1030:	f3 0f 1e fa          	endbr64 
    1034:	68 00 00 00 00       	push   $0x0
    1039:	f2 e9 e1 ff ff ff    	bnd jmp 1020 <_init+0x20>
    103f:	90                   	nop
    1040:	f3 0f 1e fa          	endbr64 
    1044:	68 01 00 00 00       	push   $0x1
    1049:	f2 e9 d1 ff ff ff    	bnd jmp 1020 <_init+0x20>
    104f:	90                   	nop

Disassembly of section .plt.got:

0000000000001050 <__cxa_finalize@plt>:
    1050:	f3 0f 1e fa          	endbr64 
    1054:	f2 ff 25 9d 2f 00 00 	bnd jmp *0x2f9d(%rip)        # 3ff8 <__cxa_finalize@GLIBC_2.2.5>
    105b:	0f 1f 44 00 00       	nopl   0x0(%rax,%rax,1)

Disassembly of section .plt.sec:

0000000000001060 <putchar@plt>:
    1060:	f3 0f 1e fa          	endbr64 
    1064:	f2 ff 25 5d 2f 00 00 	bnd jmp *0x2f5d(%rip)        # 3fc8 <putchar@GLIBC_2.2.5>
    106b:	0f 1f 44 00 00       	nopl   0x0(%rax,%rax,1)

0000000000001070 <printf@plt>:
    1070:	f3 0f 1e fa          	endbr64 
    1074:	f2 ff 25 55 2f 00 00 	bnd jmp *0x2f55(%rip)        # 3fd0 <printf@GLIBC_2.2.5>
    107b:	0f 1f 44 00 00       	nopl   0x0(%rax,%rax,1)

Disassembly of section .text:

0000000000001080 <_start>:
    1080:	f3 0f 1e fa          	endbr64 
    1084:	31 ed                	xor    %ebp,%ebp
    1086:	49 89 d1             	mov    %rdx,%r9
    1089:	5e                   	pop    %rsi
    108a:	48 89 e2             	mov    %rsp,%rdx
    108d:	48 83 e4 f0          	and    $0xfffffffffffffff0,%rsp
    1091:	50                   	push   %rax
    1092:	54                   	push   %rsp
    1093:	45 31 c0             	xor    %r8d,%r8d
    1096:	31 c9                	xor    %ecx,%ecx
    1098:	48 8d 3d 5f 02 00 00 	lea    0x25f(%rip),%rdi        # 12fe <main>
    109f:	ff 15 33 2f 00 00    	call   *0x2f33(%rip)        # 3fd8 <__libc_start_main@GLIBC_2.34>
    10a5:	f4                   	hlt    
    10a6:	66 2e 0f 1f 84 00 00 	cs nopw 0x0(%rax,%rax,1)
    10ad:	00 00 00 

00000000000010b0 <deregister_tm_clones>:
    10b0:	48 8d 3d 61 2f 00 00 	lea    0x2f61(%rip),%rdi        # 4018 <__TMC_END__>
    10b7:	48 8d 05 5a 2f 00 00 	lea    0x2f5a(%rip),%rax        # 4018 <__TMC_END__>
    10be:	48 39 f8             	cmp    %rdi,%rax
    10c1:	74 15                	je     10d8 <deregister_tm_clones+0x28>
    10c3:	48 8b 05 16 2f 00 00 	mov    0x2f16(%rip),%rax        # 3fe0 <_ITM_deregisterTMCloneTable@Base>
    10ca:	48 85 c0             	test   %rax,%rax
    10cd:	74 09                	je     10d8 <deregister_tm_clones+0x28>
    10cf:	ff e0                	jmp    *%rax
    10d1:	0f 1f 80 00 00 00 00 	nopl   0x0(%rax)
    10d8:	c3                   	ret    
    10d9:	0f 1f 80 00 00 00 00 	nopl   0x0(%rax)

00000000000010e0 <register_tm_clones>:
    10e0:	48 8d 3d 31 2f 00 00 	lea    0x2f31(%rip),%rdi        # 4018 <__TMC_END__>
    10e7:	48 8d 35 2a 2f 00 00 	lea    0x2f2a(%rip),%rsi        # 4018 <__TMC_END__>
    10ee:	48 29 fe             	sub    %rdi,%rsi
    10f1:	48 89 f0             	mov    %rsi,%rax
    10f4:	48 c1 ee 3f          	shr    $0x3f,%rsi
    10f8:	48 c1 f8 03          	sar    $0x3,%rax
    10fc:	48 01 c6             	add    %rax,%rsi
    10ff:	48 d1 fe             	sar    %rsi
    1102:	74 14                	je     1118 <register_tm_clones+0x38>
    1104:	48 8b 05 e5 2e 00 00 	mov    0x2ee5(%rip),%rax        # 3ff0 <_ITM_registerTMCloneTable@Base>
    110b:	48 85 c0             	test   %rax,%rax
    110e:	74 08                	je     1118 <register_tm_clones+0x38>
    1110:	ff e0                	jmp    *%rax
    1112:	66 0f 1f 44 00 00    	nopw   0x0(%rax,%rax,1)
    1118:	c3                   	ret    
    1119:	0f 1f 80 00 00 00 00 	nopl   0x0(%rax)

0000000000001120 <__do_global_dtors_aux>:
    1120:	f3 0f 1e fa          	endbr64 
    1124:	80 3d e9 2e 00 00 00 	cmpb   $0x0,0x2ee9(%rip)        # 4014 <completed.0>
    112b:	75 2b                	jne    1158 <__do_global_dtors_aux+0x38>
    112d:	55                   	push   %rbp
    112e:	48 83 3d c2 2e 00 00 	cmpq   $0x0,0x2ec2(%rip)        # 3ff8 <__cxa_finalize@GLIBC_2.2.5>
    1135:	00 
    1136:	48 89 e5             	mov    %rsp,%rbp
    1139:	74 0c                	je     1147 <__do_global_dtors_aux+0x27>
    113b:	48 8b 3d c6 2e 00 00 	mov    0x2ec6(%rip),%rdi        # 4008 <__dso_handle>
    1142:	e8 09 ff ff ff       	call   1050 <__cxa_finalize@plt>
    1147:	e8 64 ff ff ff       	call   10b0 <deregister_tm_clones>
    114c:	c6 05 c1 2e 00 00 01 	movb   $0x1,0x2ec1(%rip)        # 4014 <completed.0>
    1153:	5d                   	pop    %rbp
    1154:	c3                   	ret    
    1155:	0f 1f 00             	nopl   (%rax)
    1158:	c3                   	ret    
    1159:	0f 1f 80 00 00 00 00 	nopl   0x0(%rax)

0000000000001160 <frame_dummy>:
    1160:	f3 0f 1e fa          	endbr64 
    1164:	e9 77 ff ff ff       	jmp    10e0 <register_tm_clones>

0000000000001169 <printIndent>:
    1169:	f3 0f 1e fa          	endbr64 
    116d:	55                   	push   %rbp
    116e:	48 89 e5             	mov    %rsp,%rbp
    1171:	48 83 ec 20          	sub    $0x20,%rsp
    1175:	89 7d ec             	mov    %edi,-0x14(%rbp)
    1178:	c7 45 fc 00 00 00 00 	movl   $0x0,-0x4(%rbp)
    117f:	eb 0e                	jmp    118f <printIndent+0x26>
    1181:	bf 2d 00 00 00       	mov    $0x2d,%edi
    1186:	e8 d5 fe ff ff       	call   1060 <putchar@plt>
    118b:	83 45 fc 01          	addl   $0x1,-0x4(%rbp)
    118f:	8b 45 fc             	mov    -0x4(%rbp),%eax
    1192:	3b 45 ec             	cmp    -0x14(%rbp),%eax
    1195:	7c ea                	jl     1181 <printIndent+0x18>
    1197:	bf 0a 00 00 00       	mov    $0xa,%edi
    119c:	e8 bf fe ff ff       	call   1060 <putchar@plt>
    11a1:	90                   	nop
    11a2:	c9                   	leave  
    11a3:	c3                   	ret    

00000000000011a4 <__cyg_profile_func_enter>:
    11a4:	f3 0f 1e fa          	endbr64 
    11a8:	55                   	push   %rbp
    11a9:	48 89 e5             	mov    %rsp,%rbp
    11ac:	48 83 ec 10          	sub    $0x10,%rsp
    11b0:	48 89 7d f8          	mov    %rdi,-0x8(%rbp)
    11b4:	48 89 75 f0          	mov    %rsi,-0x10(%rbp)
    11b8:	8b 05 52 2e 00 00    	mov    0x2e52(%rip),%eax        # 4010 <depth>
    11be:	8d 50 01             	lea    0x1(%rax),%edx
    11c1:	89 15 49 2e 00 00    	mov    %edx,0x2e49(%rip)        # 4010 <depth>
    11c7:	89 c7                	mov    %eax,%edi
    11c9:	e8 9b ff ff ff       	call   1169 <printIndent>
    11ce:	48 8b 55 f0          	mov    -0x10(%rbp),%rdx
    11d2:	48 8b 45 f8          	mov    -0x8(%rbp),%rax
    11d6:	48 89 d1             	mov    %rdx,%rcx
    11d9:	48 89 c2             	mov    %rax,%rdx
    11dc:	48 8d 05 5d 0e 00 00 	lea    0xe5d(%rip),%rax        # 2040 <__FUNCTION__.1>
    11e3:	48 89 c6             	mov    %rax,%rsi
    11e6:	48 8d 05 23 0e 00 00 	lea    0xe23(%rip),%rax        # 2010 <_IO_stdin_used+0x10>
    11ed:	48 89 c7             	mov    %rax,%rdi
    11f0:	b8 00 00 00 00       	mov    $0x0,%eax
    11f5:	e8 76 fe ff ff       	call   1070 <printf@plt>
    11fa:	90                   	nop
    11fb:	c9                   	leave  
    11fc:	c3                   	ret    

00000000000011fd <__cyg_profile_func_exit>:
    11fd:	f3 0f 1e fa          	endbr64 
    1201:	55                   	push   %rbp
    1202:	48 89 e5             	mov    %rsp,%rbp
    1205:	48 83 ec 10          	sub    $0x10,%rsp
    1209:	48 89 7d f8          	mov    %rdi,-0x8(%rbp)
    120d:	48 89 75 f0          	mov    %rsi,-0x10(%rbp)
    1211:	8b 05 f9 2d 00 00    	mov    0x2df9(%rip),%eax        # 4010 <depth>
    1217:	8d 50 ff             	lea    -0x1(%rax),%edx
    121a:	89 15 f0 2d 00 00    	mov    %edx,0x2df0(%rip)        # 4010 <depth>
    1220:	89 c7                	mov    %eax,%edi
    1222:	e8 42 ff ff ff       	call   1169 <printIndent>
    1227:	48 8b 55 f0          	mov    -0x10(%rbp),%rdx
    122b:	48 8b 45 f8          	mov    -0x8(%rbp),%rax
    122f:	48 89 d1             	mov    %rdx,%rcx
    1232:	48 89 c2             	mov    %rax,%rdx
    1235:	48 8d 05 24 0e 00 00 	lea    0xe24(%rip),%rax        # 2060 <__FUNCTION__.0>
    123c:	48 89 c6             	mov    %rax,%rsi
    123f:	48 8d 05 ca 0d 00 00 	lea    0xdca(%rip),%rax        # 2010 <_IO_stdin_used+0x10>
    1246:	48 89 c7             	mov    %rax,%rdi
    1249:	b8 00 00 00 00       	mov    $0x0,%eax
    124e:	e8 1d fe ff ff       	call   1070 <printf@plt>
    1253:	90                   	nop
    1254:	c9                   	leave  
    1255:	c3                   	ret    

0000000000001256 <do_multi>:
    1256:	f3 0f 1e fa          	endbr64 
    125a:	55                   	push   %rbp
    125b:	48 89 e5             	mov    %rsp,%rbp
    125e:	53                   	push   %rbx
    125f:	48 83 ec 18          	sub    $0x18,%rsp
    1263:	89 7d ec             	mov    %edi,-0x14(%rbp)
    1266:	89 75 e8             	mov    %esi,-0x18(%rbp)
    1269:	48 8b 45 08          	mov    0x8(%rbp),%rax
    126d:	48 89 c6             	mov    %rax,%rsi
    1270:	48 8d 05 df ff ff ff 	lea    -0x21(%rip),%rax        # 1256 <do_multi>
    1277:	48 89 c7             	mov    %rax,%rdi
    127a:	e8 25 ff ff ff       	call   11a4 <__cyg_profile_func_enter>
    127f:	8b 45 ec             	mov    -0x14(%rbp),%eax
    1282:	0f af 45 e8          	imul   -0x18(%rbp),%eax
    1286:	89 c3                	mov    %eax,%ebx
    1288:	48 8b 45 08          	mov    0x8(%rbp),%rax
    128c:	48 89 c6             	mov    %rax,%rsi
    128f:	48 8d 05 c0 ff ff ff 	lea    -0x40(%rip),%rax        # 1256 <do_multi>
    1296:	48 89 c7             	mov    %rax,%rdi
    1299:	e8 5f ff ff ff       	call   11fd <__cyg_profile_func_exit>
    129e:	89 d8                	mov    %ebx,%eax
    12a0:	48 8b 5d f8          	mov    -0x8(%rbp),%rbx
    12a4:	c9                   	leave  
    12a5:	c3                   	ret    

00000000000012a6 <do_calc>:
    12a6:	f3 0f 1e fa          	endbr64 
    12aa:	55                   	push   %rbp
    12ab:	48 89 e5             	mov    %rsp,%rbp
    12ae:	53                   	push   %rbx
    12af:	48 83 ec 18          	sub    $0x18,%rsp
    12b3:	89 7d ec             	mov    %edi,-0x14(%rbp)
    12b6:	89 75 e8             	mov    %esi,-0x18(%rbp)
    12b9:	48 8b 45 08          	mov    0x8(%rbp),%rax
    12bd:	48 89 c6             	mov    %rax,%rsi
    12c0:	48 8d 05 df ff ff ff 	lea    -0x21(%rip),%rax        # 12a6 <do_calc>
    12c7:	48 89 c7             	mov    %rax,%rdi
    12ca:	e8 d5 fe ff ff       	call   11a4 <__cyg_profile_func_enter>
    12cf:	8b 55 e8             	mov    -0x18(%rbp),%edx
    12d2:	8b 45 ec             	mov    -0x14(%rbp),%eax
    12d5:	89 d6                	mov    %edx,%esi
    12d7:	89 c7                	mov    %eax,%edi
    12d9:	e8 78 ff ff ff       	call   1256 <do_multi>
    12de:	89 c3                	mov    %eax,%ebx
    12e0:	48 8b 45 08          	mov    0x8(%rbp),%rax
    12e4:	48 89 c6             	mov    %rax,%rsi
    12e7:	48 8d 05 b8 ff ff ff 	lea    -0x48(%rip),%rax        # 12a6 <do_calc>
    12ee:	48 89 c7             	mov    %rax,%rdi
    12f1:	e8 07 ff ff ff       	call   11fd <__cyg_profile_func_exit>
    12f6:	89 d8                	mov    %ebx,%eax
    12f8:	48 8b 5d f8          	mov    -0x8(%rbp),%rbx
    12fc:	c9                   	leave  
    12fd:	c3                   	ret    

00000000000012fe <main>:
    12fe:	f3 0f 1e fa          	endbr64 
    1302:	55                   	push   %rbp
    1303:	48 89 e5             	mov    %rsp,%rbp
    1306:	53                   	push   %rbx
    1307:	48 83 ec 18          	sub    $0x18,%rsp
    130b:	48 8b 45 08          	mov    0x8(%rbp),%rax
    130f:	48 89 c6             	mov    %rax,%rsi
    1312:	48 8d 05 e5 ff ff ff 	lea    -0x1b(%rip),%rax        # 12fe <main>
    1319:	48 89 c7             	mov    %rax,%rdi
    131c:	e8 83 fe ff ff       	call   11a4 <__cyg_profile_func_enter>
    1321:	c7 45 e8 04 00 00 00 	movl   $0x4,-0x18(%rbp)
    1328:	c7 45 ec 05 00 00 00 	movl   $0x5,-0x14(%rbp)
    132f:	8b 55 ec             	mov    -0x14(%rbp),%edx
    1332:	8b 45 e8             	mov    -0x18(%rbp),%eax
    1335:	89 d6                	mov    %edx,%esi
    1337:	89 c7                	mov    %eax,%edi
    1339:	e8 68 ff ff ff       	call   12a6 <do_calc>
    133e:	89 c6                	mov    %eax,%esi
    1340:	48 8d 05 e8 0c 00 00 	lea    0xce8(%rip),%rax        # 202f <_IO_stdin_used+0x2f>
    1347:	48 89 c7             	mov    %rax,%rdi
    134a:	b8 00 00 00 00       	mov    $0x0,%eax
    134f:	e8 1c fd ff ff       	call   1070 <printf@plt>
    1354:	bb 00 00 00 00       	mov    $0x0,%ebx
    1359:	48 8b 45 08          	mov    0x8(%rbp),%rax
    135d:	48 89 c6             	mov    %rax,%rsi
    1360:	48 8d 05 97 ff ff ff 	lea    -0x69(%rip),%rax        # 12fe <main>
    1367:	48 89 c7             	mov    %rax,%rdi
    136a:	e8 8e fe ff ff       	call   11fd <__cyg_profile_func_exit>
    136f:	89 d8                	mov    %ebx,%eax
    1371:	48 8b 5d f8          	mov    -0x8(%rbp),%rbx
    1375:	c9                   	leave  
    1376:	c3                   	ret    

Disassembly of section .fini:

0000000000001378 <_fini>:
    1378:	f3 0f 1e fa          	endbr64 
    137c:	48 83 ec 08          	sub    $0x8,%rsp
    1380:	48 83 c4 08          	add    $0x8,%rsp
    1384:	c3                   	ret    

Disassembly of section .init:

0000000000001000 <_init>:
    1000:	f3 0f 1e fa          	endbr64 
    1004:	48 83 ec 08          	sub    $0x8,%rsp
    1008:	48 8b 05 d9 2f 00 00 	mov    0x2fd9(%rip),%rax        # 3fe8 <__gmon_start__@Base>
    100f:	48 85 c0             	test   %rax,%rax
    1012:	74 02                	je     1016 <_init+0x16>
    1014:	ff d0                	call   *%rax
    1016:	48 83 c4 08          	add    $0x8,%rsp
    101a:	c3                   	ret    

Disassembly of section .plt:

0000000000001020 <.plt>:
    1020:	ff 35 92 2f 00 00    	push   0x2f92(%rip)        # 3fb8 <_GLOBAL_OFFSET_TABLE_+0x8>
    1026:	f2 ff 25 93 2f 00 00 	bnd jmp *0x2f93(%rip)        # 3fc0 <_GLOBAL_OFFSET_TABLE_+0x10>
    102d:	0f 1f 00             	nopl   (%rax)
    1030:	f3 0f 1e fa          	endbr64 
    1034:	68 00 00 00 00       	push   $0x0
    1039:	f2 e9 e1 ff ff ff    	bnd jmp 1020 <_init+0x20>
    103f:	90                   	nop
    1040:	f3 0f 1e fa          	endbr64 
    1044:	68 01 00 00 00       	push   $0x1
    1049:	f2 e9 d1 ff ff ff    	bnd jmp 1020 <_init+0x20>
    104f:	90                   	nop

Disassembly of section .plt.got:

0000000000001050 <__cxa_finalize@plt>:
    1050:	f3 0f 1e fa          	endbr64 
    1054:	f2 ff 25 9d 2f 00 00 	bnd jmp *0x2f9d(%rip)        # 3ff8 <__cxa_finalize@GLIBC_2.2.5>
    105b:	0f 1f 44 00 00       	nopl   0x0(%rax,%rax,1)

Disassembly of section .plt.sec:

0000000000001060 <putchar@plt>:
    1060:	f3 0f 1e fa          	endbr64 
    1064:	f2 ff 25 5d 2f 00 00 	bnd jmp *0x2f5d(%rip)        # 3fc8 <putchar@GLIBC_2.2.5>
    106b:	0f 1f 44 00 00       	nopl   0x0(%rax,%rax,1)

0000000000001070 <printf@plt>:
    1070:	f3 0f 1e fa          	endbr64 
    1074:	f2 ff 25 55 2f 00 00 	bnd jmp *0x2f55(%rip)        # 3fd0 <printf@GLIBC_2.2.5>
    107b:	0f 1f 44 00 00       	nopl   0x0(%rax,%rax,1)

Disassembly of section .text:

0000000000001080 <_start>:
    1080:	f3 0f 1e fa          	endbr64 
    1084:	31 ed                	xor    %ebp,%ebp
    1086:	49 89 d1             	mov    %rdx,%r9
    1089:	5e                   	pop    %rsi
    108a:	48 89 e2             	mov    %rsp,%rdx
    108d:	48 83 e4 f0          	and    $0xfffffffffffffff0,%rsp
    1091:	50                   	push   %rax
    1092:	54                   	push   %rsp
    1093:	45 31 c0             	xor    %r8d,%r8d
    1096:	31 c9                	xor    %ecx,%ecx
    1098:	48 8d 3d 5f 02 00 00 	lea    0x25f(%rip),%rdi        # 12fe <main>
    109f:	ff 15 33 2f 00 00    	call   *0x2f33(%rip)        # 3fd8 <__libc_start_main@GLIBC_2.34>
    10a5:	f4                   	hlt    
    10a6:	66 2e 0f 1f 84 00 00 	cs nopw 0x0(%rax,%rax,1)
    10ad:	00 00 00 

00000000000010b0 <deregister_tm_clones>:
    10b0:	48 8d 3d 61 2f 00 00 	lea    0x2f61(%rip),%rdi        # 4018 <__TMC_END__>
    10b7:	48 8d 05 5a 2f 00 00 	lea    0x2f5a(%rip),%rax        # 4018 <__TMC_END__>
    10be:	48 39 f8             	cmp    %rdi,%rax
    10c1:	74 15                	je     10d8 <deregister_tm_clones+0x28>
    10c3:	48 8b 05 16 2f 00 00 	mov    0x2f16(%rip),%rax        # 3fe0 <_ITM_deregisterTMCloneTable@Base>
    10ca:	48 85 c0             	test   %rax,%rax
    10cd:	74 09                	je     10d8 <deregister_tm_clones+0x28>
    10cf:	ff e0                	jmp    *%rax
    10d1:	0f 1f 80 00 00 00 00 	nopl   0x0(%rax)
    10d8:	c3                   	ret    
    10d9:	0f 1f 80 00 00 00 00 	nopl   0x0(%rax)

00000000000010e0 <register_tm_clones>:
    10e0:	48 8d 3d 31 2f 00 00 	lea    0x2f31(%rip),%rdi        # 4018 <__TMC_END__>
    10e7:	48 8d 35 2a 2f 00 00 	lea    0x2f2a(%rip),%rsi        # 4018 <__TMC_END__>
    10ee:	48 29 fe             	sub    %rdi,%rsi
    10f1:	48 89 f0             	mov    %rsi,%rax
    10f4:	48 c1 ee 3f          	shr    $0x3f,%rsi
    10f8:	48 c1 f8 03          	sar    $0x3,%rax
    10fc:	48 01 c6             	add    %rax,%rsi
    10ff:	48 d1 fe             	sar    %rsi
    1102:	74 14                	je     1118 <register_tm_clones+0x38>
    1104:	48 8b 05 e5 2e 00 00 	mov    0x2ee5(%rip),%rax        # 3ff0 <_ITM_registerTMCloneTable@Base>
    110b:	48 85 c0             	test   %rax,%rax
    110e:	74 08                	je     1118 <register_tm_clones+0x38>
    1110:	ff e0                	jmp    *%rax
    1112:	66 0f 1f 44 00 00    	nopw   0x0(%rax,%rax,1)
    1118:	c3                   	ret    
    1119:	0f 1f 80 00 00 00 00 	nopl   0x0(%rax)

0000000000001120 <__do_global_dtors_aux>:
    1120:	f3 0f 1e fa          	endbr64 
    1124:	80 3d e9 2e 00 00 00 	cmpb   $0x0,0x2ee9(%rip)        # 4014 <completed.0>
    112b:	75 2b                	jne    1158 <__do_global_dtors_aux+0x38>
    112d:	55                   	push   %rbp
    112e:	48 83 3d c2 2e 00 00 	cmpq   $0x0,0x2ec2(%rip)        # 3ff8 <__cxa_finalize@GLIBC_2.2.5>
    1135:	00 
    1136:	48 89 e5             	mov    %rsp,%rbp
    1139:	74 0c                	je     1147 <__do_global_dtors_aux+0x27>
    113b:	48 8b 3d c6 2e 00 00 	mov    0x2ec6(%rip),%rdi        # 4008 <__dso_handle>
    1142:	e8 09 ff ff ff       	call   1050 <__cxa_finalize@plt>
    1147:	e8 64 ff ff ff       	call   10b0 <deregister_tm_clones>
    114c:	c6 05 c1 2e 00 00 01 	movb   $0x1,0x2ec1(%rip)        # 4014 <completed.0>
    1153:	5d                   	pop    %rbp
    1154:	c3                   	ret    
    1155:	0f 1f 00             	nopl   (%rax)
    1158:	c3                   	ret    
    1159:	0f 1f 80 00 00 00 00 	nopl   0x0(%rax)

0000000000001160 <frame_dummy>:
    1160:	f3 0f 1e fa          	endbr64 
    1164:	e9 77 ff ff ff       	jmp    10e0 <register_tm_clones>

0000000000001169 <printIndent>:
    1169:	f3 0f 1e fa          	endbr64 
    116d:	55                   	push   %rbp
    116e:	48 89 e5             	mov    %rsp,%rbp
    1171:	48 83 ec 20          	sub    $0x20,%rsp
    1175:	89 7d ec             	mov    %edi,-0x14(%rbp)
    1178:	c7 45 fc 00 00 00 00 	movl   $0x0,-0x4(%rbp)
    117f:	eb 0e                	jmp    118f <printIndent+0x26>
    1181:	bf 2d 00 00 00       	mov    $0x2d,%edi
    1186:	e8 d5 fe ff ff       	call   1060 <putchar@plt>
    118b:	83 45 fc 01          	addl   $0x1,-0x4(%rbp)
    118f:	8b 45 fc             	mov    -0x4(%rbp),%eax
    1192:	3b 45 ec             	cmp    -0x14(%rbp),%eax
    1195:	7c ea                	jl     1181 <printIndent+0x18>
    1197:	bf 0a 00 00 00       	mov    $0xa,%edi
    119c:	e8 bf fe ff ff       	call   1060 <putchar@plt>
    11a1:	90                   	nop
    11a2:	c9                   	leave  
    11a3:	c3                   	ret    

00000000000011a4 <__cyg_profile_func_enter>:
    11a4:	f3 0f 1e fa          	endbr64 
    11a8:	55                   	push   %rbp
    11a9:	48 89 e5             	mov    %rsp,%rbp
    11ac:	48 83 ec 10          	sub    $0x10,%rsp
    11b0:	48 89 7d f8          	mov    %rdi,-0x8(%rbp)
    11b4:	48 89 75 f0          	mov    %rsi,-0x10(%rbp)
    11b8:	8b 05 52 2e 00 00    	mov    0x2e52(%rip),%eax        # 4010 <depth>
    11be:	8d 50 01             	lea    0x1(%rax),%edx
    11c1:	89 15 49 2e 00 00    	mov    %edx,0x2e49(%rip)        # 4010 <depth>
    11c7:	89 c7                	mov    %eax,%edi
    11c9:	e8 9b ff ff ff       	call   1169 <printIndent>
    11ce:	48 8b 55 f0          	mov    -0x10(%rbp),%rdx
    11d2:	48 8b 45 f8          	mov    -0x8(%rbp),%rax
    11d6:	48 89 d1             	mov    %rdx,%rcx
    11d9:	48 89 c2             	mov    %rax,%rdx
    11dc:	48 8d 05 5d 0e 00 00 	lea    0xe5d(%rip),%rax        # 2040 <__FUNCTION__.1>
    11e3:	48 89 c6             	mov    %rax,%rsi
    11e6:	48 8d 05 23 0e 00 00 	lea    0xe23(%rip),%rax        # 2010 <_IO_stdin_used+0x10>
    11ed:	48 89 c7             	mov    %rax,%rdi
    11f0:	b8 00 00 00 00       	mov    $0x0,%eax
    11f5:	e8 76 fe ff ff       	call   1070 <printf@plt>
    11fa:	90                   	nop
    11fb:	c9                   	leave  
    11fc:	c3                   	ret    

00000000000011fd <__cyg_profile_func_exit>:
    11fd:	f3 0f 1e fa          	endbr64 
    1201:	55                   	push   %rbp
    1202:	48 89 e5             	mov    %rsp,%rbp
    1205:	48 83 ec 10          	sub    $0x10,%rsp
    1209:	48 89 7d f8          	mov    %rdi,-0x8(%rbp)
    120d:	48 89 75 f0          	mov    %rsi,-0x10(%rbp)
    1211:	8b 05 f9 2d 00 00    	mov    0x2df9(%rip),%eax        # 4010 <depth>
    1217:	8d 50 ff             	lea    -0x1(%rax),%edx
    121a:	89 15 f0 2d 00 00    	mov    %edx,0x2df0(%rip)        # 4010 <depth>
    1220:	89 c7                	mov    %eax,%edi
    1222:	e8 42 ff ff ff       	call   1169 <printIndent>
    1227:	48 8b 55 f0          	mov    -0x10(%rbp),%rdx
    122b:	48 8b 45 f8          	mov    -0x8(%rbp),%rax
    122f:	48 89 d1             	mov    %rdx,%rcx
    1232:	48 89 c2             	mov    %rax,%rdx
    1235:	48 8d 05 24 0e 00 00 	lea    0xe24(%rip),%rax        # 2060 <__FUNCTION__.0>
    123c:	48 89 c6             	mov    %rax,%rsi
    123f:	48 8d 05 ca 0d 00 00 	lea    0xdca(%rip),%rax        # 2010 <_IO_stdin_used+0x10>
    1246:	48 89 c7             	mov    %rax,%rdi
    1249:	b8 00 00 00 00       	mov    $0x0,%eax
    124e:	e8 1d fe ff ff       	call   1070 <printf@plt>
    1253:	90                   	nop
    1254:	c9                   	leave  
    1255:	c3                   	ret    

0000000000001256 <do_multi>:
    1256:	f3 0f 1e fa          	endbr64 
    125a:	55                   	push   %rbp
    125b:	48 89 e5             	mov    %rsp,%rbp
    125e:	53                   	push   %rbx
    125f:	48 83 ec 18          	sub    $0x18,%rsp
    1263:	89 7d ec             	mov    %edi,-0x14(%rbp)
    1266:	89 75 e8             	mov    %esi,-0x18(%rbp)
    1269:	48 8b 45 08          	mov    0x8(%rbp),%rax
    126d:	48 89 c6             	mov    %rax,%rsi
    1270:	48 8d 05 df ff ff ff 	lea    -0x21(%rip),%rax        # 1256 <do_multi>
    1277:	48 89 c7             	mov    %rax,%rdi
    127a:	e8 25 ff ff ff       	call   11a4 <__cyg_profile_func_enter>
    127f:	8b 45 ec             	mov    -0x14(%rbp),%eax
    1282:	0f af 45 e8          	imul   -0x18(%rbp),%eax
    1286:	89 c3                	mov    %eax,%ebx
    1288:	48 8b 45 08          	mov    0x8(%rbp),%rax
    128c:	48 89 c6             	mov    %rax,%rsi
    128f:	48 8d 05 c0 ff ff ff 	lea    -0x40(%rip),%rax        # 1256 <do_multi>
    1296:	48 89 c7             	mov    %rax,%rdi
    1299:	e8 5f ff ff ff       	call   11fd <__cyg_profile_func_exit>
    129e:	89 d8                	mov    %ebx,%eax
    12a0:	48 8b 5d f8          	mov    -0x8(%rbp),%rbx
    12a4:	c9                   	leave  
    12a5:	c3                   	ret    

00000000000012a6 <do_calc>:
    12a6:	f3 0f 1e fa          	endbr64 
    12aa:	55                   	push   %rbp
    12ab:	48 89 e5             	mov    %rsp,%rbp
    12ae:	53                   	push   %rbx
    12af:	48 83 ec 18          	sub    $0x18,%rsp
    12b3:	89 7d ec             	mov    %edi,-0x14(%rbp)
    12b6:	89 75 e8             	mov    %esi,-0x18(%rbp)
    12b9:	48 8b 45 08          	mov    0x8(%rbp),%rax
    12bd:	48 89 c6             	mov    %rax,%rsi
    12c0:	48 8d 05 df ff ff ff 	lea    -0x21(%rip),%rax        # 12a6 <do_calc>
    12c7:	48 89 c7             	mov    %rax,%rdi
    12ca:	e8 d5 fe ff ff       	call   11a4 <__cyg_profile_func_enter>
    12cf:	8b 55 e8             	mov    -0x18(%rbp),%edx
    12d2:	8b 45 ec             	mov    -0x14(%rbp),%eax
    12d5:	89 d6                	mov    %edx,%esi
    12d7:	89 c7                	mov    %eax,%edi
    12d9:	e8 78 ff ff ff       	call   1256 <do_multi>
    12de:	89 c3                	mov    %eax,%ebx
    12e0:	48 8b 45 08          	mov    0x8(%rbp),%rax
    12e4:	48 89 c6             	mov    %rax,%rsi
    12e7:	48 8d 05 b8 ff ff ff 	lea    -0x48(%rip),%rax        # 12a6 <do_calc>
    12ee:	48 89 c7             	mov    %rax,%rdi
    12f1:	e8 07 ff ff ff       	call   11fd <__cyg_profile_func_exit>
    12f6:	89 d8                	mov    %ebx,%eax
    12f8:	48 8b 5d f8          	mov    -0x8(%rbp),%rbx
    12fc:	c9                   	leave  
    12fd:	c3                   	ret    

00000000000012fe <main>:
    12fe:	f3 0f 1e fa          	endbr64 
    1302:	55                   	push   %rbp
    1303:	48 89 e5             	mov    %rsp,%rbp
    1306:	53                   	push   %rbx
    1307:	48 83 ec 18          	sub    $0x18,%rsp
    130b:	48 8b 45 08          	mov    0x8(%rbp),%rax
    130f:	48 89 c6             	mov    %rax,%rsi
    1312:	48 8d 05 e5 ff ff ff 	lea    -0x1b(%rip),%rax        # 12fe <main>
    1319:	48 89 c7             	mov    %rax,%rdi
    131c:	e8 83 fe ff ff       	call   11a4 <__cyg_profile_func_enter>
    1321:	c7 45 e8 04 00 00 00 	movl   $0x4,-0x18(%rbp)
    1328:	c7 45 ec 05 00 00 00 	movl   $0x5,-0x14(%rbp)
    132f:	8b 55 ec             	mov    -0x14(%rbp),%edx
    1332:	8b 45 e8             	mov    -0x18(%rbp),%eax
    1335:	89 d6                	mov    %edx,%esi
    1337:	89 c7                	mov    %eax,%edi
    1339:	e8 68 ff ff ff       	call   12a6 <do_calc>
    133e:	89 c6                	mov    %eax,%esi
    1340:	48 8d 05 e8 0c 00 00 	lea    0xce8(%rip),%rax        # 202f <_IO_stdin_used+0x2f>
    1347:	48 89 c7             	mov    %rax,%rdi
    134a:	b8 00 00 00 00       	mov    $0x0,%eax
    134f:	e8 1c fd ff ff       	call   1070 <printf@plt>
    1354:	bb 00 00 00 00       	mov    $0x0,%ebx
    1359:	48 8b 45 08          	mov    0x8(%rbp),%rax
    135d:	48 89 c6             	mov    %rax,%rsi
    1360:	48 8d 05 97 ff ff ff 	lea    -0x69(%rip),%rax        # 12fe <main>
    1367:	48 89 c7             	mov    %rax,%rdi
    136a:	e8 8e fe ff ff       	call   11fd <__cyg_profile_func_exit>
    136f:	89 d8                	mov    %ebx,%eax
    1371:	48 8b 5d f8          	mov    -0x8(%rbp),%rbx
    1375:	c9                   	leave  
    1376:	c3                   	ret    

Disassembly of section .fini:

0000000000001378 <_fini>:
    1378:	f3 0f 1e fa          	endbr64 
    137c:	48 83 ec 08          	sub    $0x8,%rsp
    1380:	48 83 c4 08          	add    $0x8,%rsp
    1384:	c3                   	ret    
